
proyecto.elf:     file format elf32-littlearm

Sections:
Idx Name          Size      VMA       LMA       File off  Algn
  0 .text         00007494  0c100000  0c100000  00008000  2**2
                  CONTENTS, ALLOC, LOAD, READONLY, CODE
  1 .rodata       00001884  0c107494  0c107494  0000f494  2**2
                  CONTENTS, ALLOC, LOAD, READONLY, DATA
  2 .ARM.exidx    00000008  0c108d18  0c108d18  00010d18  2**2
                  CONTENTS, ALLOC, LOAD, READONLY, DATA
  3 .data         00000018  0c108d20  0c108d20  00010d20  2**2
                  CONTENTS, ALLOC, LOAD, DATA
  4 .lcdbuffer    00009600  0c108d38  0c108d38  00010d38  2**2
                  CONTENTS, ALLOC, LOAD, DATA
  5 .bss          00000860  0c112338  0c112338  0001a338  2**2
                  ALLOC
  6 .debug_abbrev 00000d40  00000000  00000000  0001a338  2**0
                  CONTENTS, READONLY, DEBUGGING
  7 .debug_info   00002b91  00000000  00000000  0001b078  2**0
                  CONTENTS, READONLY, DEBUGGING
  8 .debug_line   00001287  00000000  00000000  0001dc09  2**0
                  CONTENTS, READONLY, DEBUGGING
  9 .debug_macinfo 00042ea3  00000000  00000000  0001ee90  2**0
                  CONTENTS, READONLY, DEBUGGING
 10 .debug_loc    00001aa4  00000000  00000000  00061d33  2**0
                  CONTENTS, READONLY, DEBUGGING
 11 .debug_pubnames 00000bbc  00000000  00000000  000637d7  2**0
                  CONTENTS, READONLY, DEBUGGING
 12 .debug_pubtypes 000002ff  00000000  00000000  00064393  2**0
                  CONTENTS, READONLY, DEBUGGING
 13 .debug_aranges 000001c0  00000000  00000000  00064692  2**0
                  CONTENTS, READONLY, DEBUGGING
 14 .debug_str    00000c16  00000000  00000000  00064852  2**0
                  CONTENTS, READONLY, DEBUGGING
 15 .comment      0000002a  00000000  00000000  00065468  2**0
                  CONTENTS, READONLY
 16 .ARM.attributes 00000032  00000000  00000000  00065492  2**0
                  CONTENTS, READONLY
 17 .debug_frame  00001748  00000000  00000000  000654c4  2**2
                  CONTENTS, READONLY, DEBUGGING

Disassembly of section .text:

0c100000 <main>:
void isr_tick( void ) __attribute__ ((interrupt ("IRQ")));

/*******************************************************************/

void main( void )
{
 c100000:	e1a0c00d 	mov	ip, sp
 c100004:	e92dd800 	push	{fp, ip, lr, pc}
 c100008:	e24cb004 	sub	fp, ip, #4
 c10000c:	e24dd008 	sub	sp, sp, #8
//    uint8 i;
    pf_t pf;
    sys_init();
 c100010:	eb000e4a 	bl	c103940 <sys_init>
    timers_init();
 c100014:	eb00144f 	bl	c105158 <timers_init>
    lcd_init();
 c100018:	eb000796 	bl	c101e78 <lcd_init>
    uda1341ts_init();
 c10001c:	eb00187c 	bl	c106214 <uda1341ts_init>
    iis_init(IIS_POLLING);
 c100020:	e3a00002 	mov	r0, #2
 c100024:	eb000463 	bl	c1011b8 <iis_init>
    
    uda1341ts_setvol( VOL_MED );
 c100028:	e3a00020 	mov	r0, #32
 c10002c:	eb001901 	bl	c106438 <uda1341ts_setvol>

    lcd_on();
 c100030:	eb0007fc 	bl	c102028 <lcd_on>

    lcd_clear();
 c100034:	eb000823 	bl	c1020c8 <lcd_clear>
    lcd_putWallpaper(NINTENDO);
 c100038:	e59f00cc 	ldr	r0, [pc, #204]	; c10010c <_code_start+0x10c>
 c10003c:	eb000c2f 	bl	c103100 <lcd_putWallpaper>
    lcd_puts(60, 50, BLACK, "Pulse Keypad 0 para jugar");
 c100040:	e3a0003c 	mov	r0, #60	; 0x3c
 c100044:	e3a01032 	mov	r1, #50	; 0x32
 c100048:	e3a0200f 	mov	r2, #15
 c10004c:	e59f30bc 	ldr	r3, [pc, #188]	; c100110 <_code_start+0x110>
 c100050:	eb000a1f 	bl	c1028d4 <lcd_puts>
    lcd_puts(50, 170, BLACK, "Use los pulsadores para mover");
 c100054:	e3a00032 	mov	r0, #50	; 0x32
 c100058:	e3a010aa 	mov	r1, #170	; 0xaa
 c10005c:	e3a0200f 	mov	r2, #15
 c100060:	e59f30ac 	ldr	r3, [pc, #172]	; c100114 <_code_start+0x114>
 c100064:	eb000a1a 	bl	c1028d4 <lcd_puts>
    lcd_puts(50, 190, BLACK, "Keypad 0 para reiniciar");
 c100068:	e3a00032 	mov	r0, #50	; 0x32
 c10006c:	e3a010be 	mov	r1, #190	; 0xbe
 c100070:	e3a0200f 	mov	r2, #15
 c100074:	e59f309c 	ldr	r3, [pc, #156]	; c100118 <_code_start+0x118>
 c100078:	eb000a15 	bl	c1028d4 <lcd_puts>
    lcd_puts(50, 210, BLACK, "Keypad 3 para pausar");
 c10007c:	e3a00032 	mov	r0, #50	; 0x32
 c100080:	e3a010d2 	mov	r1, #210	; 0xd2
 c100084:	e3a0200f 	mov	r2, #15
 c100088:	e59f308c 	ldr	r3, [pc, #140]	; c10011c <_code_start+0x11c>
 c10008c:	eb000a10 	bl	c1028d4 <lcd_puts>

	fifo_init();
 c100090:	eb0003b7 	bl	c100f74 <fifo_init>
	timer0_open_tick( isr_tick, TICKS_PER_SEC );// Instala isr_tick como RTI del timer0
 c100094:	e59f0084 	ldr	r0, [pc, #132]	; c100120 <_code_start+0x120>
 c100098:	e3a01064 	mov	r1, #100	; 0x64
 c10009c:	eb0015de 	bl	c10581c <timer0_open_tick>
           
	pause=FALSE;
 c1000a0:	e59f307c 	ldr	r3, [pc, #124]	; c100124 <_code_start+0x124>
 c1000a4:	e3a02000 	mov	r2, #0
 c1000a8:	e5c32000 	strb	r2, [r3]
    final = TRUE;
 c1000ac:	e59f3074 	ldr	r3, [pc, #116]	; c100128 <_code_start+0x128>
 c1000b0:	e3a02001 	mov	r2, #1
 c1000b4:	e5c32000 	strb	r2, [r3]
    gameOver = FALSE;
 c1000b8:	e59f306c 	ldr	r3, [pc, #108]	; c10012c <_code_start+0x12c>
 c1000bc:	e3a02000 	mov	r2, #0
 c1000c0:	e5c32000 	strb	r2, [r3]

    while( !gameOver )
 c1000c4:	ea00000a 	b	c1000f4 <main+0xf4>
    {
    	sleep();                        // Entra en estado IDLE, sale por interrupción
 c1000c8:	eb001411 	bl	c105114 <sleep>
        while( !fifo_is_empty() )
 c1000cc:	ea000004 	b	c1000e4 <main+0xe4>
        {
            pf = fifo_dequeue();
 c1000d0:	eb0003e6 	bl	c101070 <fifo_dequeue>
 c1000d4:	e50b0010 	str	r0, [fp, #-16]
            (*pf)();                    // Las tareas encoladas se ejecutan en esta hebra (background) en orden de encolado
 c1000d8:	e51b3010 	ldr	r3, [fp, #-16]
 c1000dc:	e1a0e00f 	mov	lr, pc
 c1000e0:	e12fff13 	bx	r3
    gameOver = FALSE;

    while( !gameOver )
    {
    	sleep();                        // Entra en estado IDLE, sale por interrupción
        while( !fifo_is_empty() )
 c1000e4:	eb000411 	bl	c101130 <fifo_is_empty>
 c1000e8:	e1a03000 	mov	r3, r0
 c1000ec:	e3530000 	cmp	r3, #0
 c1000f0:	0afffff6 	beq	c1000d0 <main+0xd0>
           
	pause=FALSE;
    final = TRUE;
    gameOver = FALSE;

    while( !gameOver )
 c1000f4:	e59f3030 	ldr	r3, [pc, #48]	; c10012c <_code_start+0x12c>
 c1000f8:	e5d33000 	ldrb	r3, [r3]
 c1000fc:	e3530000 	cmp	r3, #0
 c100100:	0afffff0 	beq	c1000c8 <main+0xc8>
        }
    }
    


    timer0_close();
 c100104:	eb0016a3 	bl	c105b98 <timer0_close>
    while(1);
 c100108:	eafffffe 	b	c100108 <main+0x108>
 c10010c:	0c220000 	.word	0x0c220000
 c100110:	0c107594 	.word	0x0c107594
 c100114:	0c1075b0 	.word	0x0c1075b0
 c100118:	0c1075d0 	.word	0x0c1075d0
 c10011c:	0c1075e8 	.word	0x0c1075e8
 c100120:	0c100af0 	.word	0x0c100af0
 c100124:	0c112381 	.word	0x0c112381
 c100128:	0c112383 	.word	0x0c112383
 c10012c:	0c112b90 	.word	0x0c112b90

0c100130 <dummy_init>:
}

/*******************************************************************/

void dummy_init( void )
{
 c100130:	e1a0c00d 	mov	ip, sp
 c100134:	e92dd800 	push	{fp, ip, lr, pc}
 c100138:	e24cb004 	sub	fp, ip, #4
    dummyPos = 0;          					// Inicializa la posición del dummy...
 c10013c:	e59f3034 	ldr	r3, [pc, #52]	; c100178 <dummy_init+0x48>
 c100140:	e3a02000 	mov	r2, #0
 c100144:	e5c32000 	strb	r2, [r3]
    vidas = 3;								//Inicializa las vidas restantes.
 c100148:	e59f302c 	ldr	r3, [pc, #44]	; c10017c <dummy_init+0x4c>
 c10014c:	e3a02003 	mov	r2, #3
 c100150:	e5c32000 	strb	r2, [r3]
    vDummy = 50;								//Velocidad normal de dummy
 c100154:	e59f3024 	ldr	r3, [pc, #36]	; c100180 <dummy_init+0x50>
 c100158:	e3a02032 	mov	r2, #50	; 0x32
 c10015c:	e5c32000 	strb	r2, [r3]
    sprite_plot( &dummy, 0 );               // ... y lo dibuja
 c100160:	e59f001c 	ldr	r0, [pc, #28]	; c100184 <dummy_init+0x54>
 c100164:	e3a01000 	mov	r1, #0
 c100168:	eb0002ae 	bl	c100c28 <sprite_plot>
}
 c10016c:	e24bd00c 	sub	sp, fp, #12
 c100170:	e89d6800 	ldm	sp, {fp, sp, lr}
 c100174:	e12fff1e 	bx	lr
 c100178:	0c112380 	.word	0x0c112380
 c10017c:	0c112b92 	.word	0x0c112b92
 c100180:	0c112b97 	.word	0x0c112b97
 c100184:	0c1074b4 	.word	0x0c1074b4

0c100188 <dummy_move>:

void dummy_move( void )
{
 c100188:	e1a0c00d 	mov	ip, sp
 c10018c:	e92dd800 	push	{fp, ip, lr, pc}
 c100190:	e24cb004 	sub	fp, ip, #4
    sprite_clear( &dummy, dummyPos );       // Borra el dummy de su posición actual
 c100194:	e59f307c 	ldr	r3, [pc, #124]	; c100218 <dummy_move+0x90>
 c100198:	e5d33000 	ldrb	r3, [r3]
 c10019c:	e59f0078 	ldr	r0, [pc, #120]	; c10021c <dummy_move+0x94>
 c1001a0:	e1a01003 	mov	r1, r3
 c1001a4:	eb0002c5 	bl	c100cc0 <sprite_clear>
    if( dummyPos == dummy.num_plots-1 )     // Si el dummy ha alcanzado la última posición...
 c1001a8:	e59f3068 	ldr	r3, [pc, #104]	; c100218 <dummy_move+0x90>
 c1001ac:	e5d33000 	ldrb	r3, [r3]
 c1001b0:	e1a02003 	mov	r2, r3
 c1001b4:	e59f3060 	ldr	r3, [pc, #96]	; c10021c <dummy_move+0x94>
 c1001b8:	e1d330b4 	ldrh	r3, [r3, #4]
 c1001bc:	e2433001 	sub	r3, r3, #1
 c1001c0:	e1520003 	cmp	r2, r3
 c1001c4:	1a000005 	bne	c1001e0 <dummy_move+0x58>
    {
        dummyPos = 0;                       // ... lo coloca en la posición de salida
 c1001c8:	e59f3048 	ldr	r3, [pc, #72]	; c100218 <dummy_move+0x90>
 c1001cc:	e3a02000 	mov	r2, #0
 c1001d0:	e5c32000 	strb	r2, [r3]
        fifo_enqueue( count_inc );          // ... incremeta el contador de dummies rescatados 
 c1001d4:	e59f0044 	ldr	r0, [pc, #68]	; c100220 <dummy_move+0x98>
 c1001d8:	eb000375 	bl	c100fb4 <fifo_enqueue>
 c1001dc:	ea000005 	b	c1001f8 <dummy_move+0x70>
    } else
        dummyPos++;                         // En caso contrario, avanza su posición
 c1001e0:	e59f3030 	ldr	r3, [pc, #48]	; c100218 <dummy_move+0x90>
 c1001e4:	e5d33000 	ldrb	r3, [r3]
 c1001e8:	e2833001 	add	r3, r3, #1
 c1001ec:	e20320ff 	and	r2, r3, #255	; 0xff
 c1001f0:	e59f3020 	ldr	r3, [pc, #32]	; c100218 <dummy_move+0x90>
 c1001f4:	e5c32000 	strb	r2, [r3]
    sprite_plot( &dummy, dummyPos );        // Dibuja el dummy en la nueva posición   
 c1001f8:	e59f3018 	ldr	r3, [pc, #24]	; c100218 <dummy_move+0x90>
 c1001fc:	e5d33000 	ldrb	r3, [r3]
 c100200:	e59f0014 	ldr	r0, [pc, #20]	; c10021c <dummy_move+0x94>
 c100204:	e1a01003 	mov	r1, r3
 c100208:	eb000286 	bl	c100c28 <sprite_plot>
}
 c10020c:	e24bd00c 	sub	sp, fp, #12
 c100210:	e89d6800 	ldm	sp, {fp, sp, lr}
 c100214:	e12fff1e 	bx	lr
 c100218:	0c112380 	.word	0x0c112380
 c10021c:	0c1074b4 	.word	0x0c1074b4
 c100220:	0c100a48 	.word	0x0c100a48

0c100224 <dummy_dead>:



void dummy_dead( void ){
 c100224:	e1a0c00d 	mov	ip, sp
 c100228:	e92dd800 	push	{fp, ip, lr, pc}
 c10022c:	e24cb004 	sub	fp, ip, #4
	if ((dummyPos==4)||(dummyPos==10)||(dummyPos==16)){
 c100230:	e59f3174 	ldr	r3, [pc, #372]	; c1003ac <dummy_dead+0x188>
 c100234:	e5d33000 	ldrb	r3, [r3]
 c100238:	e3530004 	cmp	r3, #4
 c10023c:	0a000007 	beq	c100260 <dummy_dead+0x3c>
 c100240:	e59f3164 	ldr	r3, [pc, #356]	; c1003ac <dummy_dead+0x188>
 c100244:	e5d33000 	ldrb	r3, [r3]
 c100248:	e353000a 	cmp	r3, #10
 c10024c:	0a000003 	beq	c100260 <dummy_dead+0x3c>
 c100250:	e59f3154 	ldr	r3, [pc, #340]	; c1003ac <dummy_dead+0x188>
 c100254:	e5d33000 	ldrb	r3, [r3]
 c100258:	e3530010 	cmp	r3, #16
 c10025c:	1a00004f 	bne	c1003a0 <dummy_dead+0x17c>
		if(!((firemenPos==0 && dummyPos==4)||(firemenPos==1 && dummyPos==10)||(firemenPos==2 && dummyPos==16))){
 c100260:	e59f3148 	ldr	r3, [pc, #328]	; c1003b0 <dummy_dead+0x18c>
 c100264:	e5d33000 	ldrb	r3, [r3]
 c100268:	e3530000 	cmp	r3, #0
 c10026c:	1a000003 	bne	c100280 <dummy_dead+0x5c>
 c100270:	e59f3134 	ldr	r3, [pc, #308]	; c1003ac <dummy_dead+0x188>
 c100274:	e5d33000 	ldrb	r3, [r3]
 c100278:	e3530004 	cmp	r3, #4
 c10027c:	0a000045 	beq	c100398 <dummy_dead+0x174>
 c100280:	e59f3128 	ldr	r3, [pc, #296]	; c1003b0 <dummy_dead+0x18c>
 c100284:	e5d33000 	ldrb	r3, [r3]
 c100288:	e3530001 	cmp	r3, #1
 c10028c:	1a000003 	bne	c1002a0 <dummy_dead+0x7c>
 c100290:	e59f3114 	ldr	r3, [pc, #276]	; c1003ac <dummy_dead+0x188>
 c100294:	e5d33000 	ldrb	r3, [r3]
 c100298:	e353000a 	cmp	r3, #10
 c10029c:	0a00003d 	beq	c100398 <dummy_dead+0x174>
 c1002a0:	e59f3108 	ldr	r3, [pc, #264]	; c1003b0 <dummy_dead+0x18c>
 c1002a4:	e5d33000 	ldrb	r3, [r3]
 c1002a8:	e3530002 	cmp	r3, #2
 c1002ac:	1a000003 	bne	c1002c0 <dummy_dead+0x9c>
 c1002b0:	e59f30f4 	ldr	r3, [pc, #244]	; c1003ac <dummy_dead+0x188>
 c1002b4:	e5d33000 	ldrb	r3, [r3]
 c1002b8:	e3530010 	cmp	r3, #16
 c1002bc:	0a000035 	beq	c100398 <dummy_dead+0x174>
			if (dummyPos==4)posCrash=0;
 c1002c0:	e59f30e4 	ldr	r3, [pc, #228]	; c1003ac <dummy_dead+0x188>
 c1002c4:	e5d33000 	ldrb	r3, [r3]
 c1002c8:	e3530004 	cmp	r3, #4
 c1002cc:	1a000003 	bne	c1002e0 <dummy_dead+0xbc>
 c1002d0:	e59f30dc 	ldr	r3, [pc, #220]	; c1003b4 <dummy_dead+0x190>
 c1002d4:	e3a02000 	mov	r2, #0
 c1002d8:	e5c32000 	strb	r2, [r3]
 c1002dc:	ea00000e 	b	c10031c <dummy_dead+0xf8>
			else if (dummyPos==10)posCrash=1;
 c1002e0:	e59f30c4 	ldr	r3, [pc, #196]	; c1003ac <dummy_dead+0x188>
 c1002e4:	e5d33000 	ldrb	r3, [r3]
 c1002e8:	e353000a 	cmp	r3, #10
 c1002ec:	1a000003 	bne	c100300 <dummy_dead+0xdc>
 c1002f0:	e59f30bc 	ldr	r3, [pc, #188]	; c1003b4 <dummy_dead+0x190>
 c1002f4:	e3a02001 	mov	r2, #1
 c1002f8:	e5c32000 	strb	r2, [r3]
 c1002fc:	ea000006 	b	c10031c <dummy_dead+0xf8>
			else if (dummyPos==16)posCrash=2;
 c100300:	e59f30a4 	ldr	r3, [pc, #164]	; c1003ac <dummy_dead+0x188>
 c100304:	e5d33000 	ldrb	r3, [r3]
 c100308:	e3530010 	cmp	r3, #16
 c10030c:	1a000002 	bne	c10031c <dummy_dead+0xf8>
 c100310:	e59f309c 	ldr	r3, [pc, #156]	; c1003b4 <dummy_dead+0x190>
 c100314:	e3a02002 	mov	r2, #2
 c100318:	e5c32000 	strb	r2, [r3]
			sprite_plot(&crash, posCrash);
 c10031c:	e59f3090 	ldr	r3, [pc, #144]	; c1003b4 <dummy_dead+0x190>
 c100320:	e5d33000 	ldrb	r3, [r3]
 c100324:	e59f008c 	ldr	r0, [pc, #140]	; c1003b8 <dummy_dead+0x194>
 c100328:	e1a01003 	mov	r1, r3
 c10032c:	eb00023d 	bl	c100c28 <sprite_plot>
			fifo_enqueue(efecto_muerte);
 c100330:	e59f0084 	ldr	r0, [pc, #132]	; c1003bc <dummy_dead+0x198>
 c100334:	eb00031e 	bl	c100fb4 <fifo_enqueue>
			vidas=vidas-1;
 c100338:	e59f3080 	ldr	r3, [pc, #128]	; c1003c0 <dummy_dead+0x19c>
 c10033c:	e5d33000 	ldrb	r3, [r3]
 c100340:	e2433001 	sub	r3, r3, #1
 c100344:	e20320ff 	and	r2, r3, #255	; 0xff
 c100348:	e59f3070 	ldr	r3, [pc, #112]	; c1003c0 <dummy_dead+0x19c>
 c10034c:	e5c32000 	strb	r2, [r3]
			sprite_clear( &dummy, dummyPos );
 c100350:	e59f3054 	ldr	r3, [pc, #84]	; c1003ac <dummy_dead+0x188>
 c100354:	e5d33000 	ldrb	r3, [r3]
 c100358:	e59f0064 	ldr	r0, [pc, #100]	; c1003c4 <dummy_dead+0x1a0>
 c10035c:	e1a01003 	mov	r1, r3
 c100360:	eb000256 	bl	c100cc0 <sprite_clear>
			sprite_clear( &life, vidas );
 c100364:	e59f3054 	ldr	r3, [pc, #84]	; c1003c0 <dummy_dead+0x19c>
 c100368:	e5d33000 	ldrb	r3, [r3]
 c10036c:	e59f0054 	ldr	r0, [pc, #84]	; c1003c8 <dummy_dead+0x1a4>
 c100370:	e1a01003 	mov	r1, r3
 c100374:	eb000251 	bl	c100cc0 <sprite_clear>
	    	segs_putchar(vidas); //Muestra vidas en el display de 7 segmentos.
 c100378:	e59f3040 	ldr	r3, [pc, #64]	; c1003c0 <dummy_dead+0x19c>
 c10037c:	e5d33000 	ldrb	r3, [r3]
 c100380:	e1a00003 	mov	r0, r3
 c100384:	eb000d4d 	bl	c1038c0 <segs_putchar>
			dummyPos=0;
 c100388:	e59f301c 	ldr	r3, [pc, #28]	; c1003ac <dummy_dead+0x188>
 c10038c:	e3a02000 	mov	r2, #0
 c100390:	e5c32000 	strb	r2, [r3]
 c100394:	ea000001 	b	c1003a0 <dummy_dead+0x17c>
		}else{
			fifo_enqueue(sonido_cama);
 c100398:	e59f002c 	ldr	r0, [pc, #44]	; c1003cc <dummy_dead+0x1a8>
 c10039c:	eb000304 	bl	c100fb4 <fifo_enqueue>
		}
	}
}
 c1003a0:	e24bd00c 	sub	sp, fp, #12
 c1003a4:	e89d6800 	ldm	sp, {fp, sp, lr}
 c1003a8:	e12fff1e 	bx	lr
 c1003ac:	0c112380 	.word	0x0c112380
 c1003b0:	0c112384 	.word	0x0c112384
 c1003b4:	0c112b91 	.word	0x0c112b91
 c1003b8:	0c107554 	.word	0x0c107554
 c1003bc:	0c1008f0 	.word	0x0c1008f0
 c1003c0:	0c112b92 	.word	0x0c112b92
 c1003c4:	0c1074b4 	.word	0x0c1074b4
 c1003c8:	0c107574 	.word	0x0c107574
 c1003cc:	0c1008c4 	.word	0x0c1008c4

0c1003d0 <firemen_move>:

void firemen_move( void ){
 c1003d0:	e1a0c00d 	mov	ip, sp
 c1003d4:	e92dd800 	push	{fp, ip, lr, pc}
 c1003d8:	e24cb004 	sub	fp, ip, #4
	if( pscancode == PB_RIGHT){
 c1003dc:	e59f30c8 	ldr	r3, [pc, #200]	; c1004ac <firemen_move+0xdc>
 c1003e0:	e5d33000 	ldrb	r3, [r3]
 c1003e4:	e3530080 	cmp	r3, #128	; 0x80
 c1003e8:	1a000014 	bne	c100440 <firemen_move+0x70>
		if(firemenPos<2){
 c1003ec:	e59f30bc 	ldr	r3, [pc, #188]	; c1004b0 <firemen_move+0xe0>
 c1003f0:	e5d33000 	ldrb	r3, [r3]
 c1003f4:	e3530001 	cmp	r3, #1
 c1003f8:	8a000028 	bhi	c1004a0 <firemen_move+0xd0>
			sprite_clear(&firemen, firemenPos);
 c1003fc:	e59f30ac 	ldr	r3, [pc, #172]	; c1004b0 <firemen_move+0xe0>
 c100400:	e5d33000 	ldrb	r3, [r3]
 c100404:	e59f00a8 	ldr	r0, [pc, #168]	; c1004b4 <firemen_move+0xe4>
 c100408:	e1a01003 	mov	r1, r3
 c10040c:	eb00022b 	bl	c100cc0 <sprite_clear>
			firemenPos++;
 c100410:	e59f3098 	ldr	r3, [pc, #152]	; c1004b0 <firemen_move+0xe0>
 c100414:	e5d33000 	ldrb	r3, [r3]
 c100418:	e2833001 	add	r3, r3, #1
 c10041c:	e20320ff 	and	r2, r3, #255	; 0xff
 c100420:	e59f3088 	ldr	r3, [pc, #136]	; c1004b0 <firemen_move+0xe0>
 c100424:	e5c32000 	strb	r2, [r3]
			sprite_plot(&firemen, firemenPos);
 c100428:	e59f3080 	ldr	r3, [pc, #128]	; c1004b0 <firemen_move+0xe0>
 c10042c:	e5d33000 	ldrb	r3, [r3]
 c100430:	e59f007c 	ldr	r0, [pc, #124]	; c1004b4 <firemen_move+0xe4>
 c100434:	e1a01003 	mov	r1, r3
 c100438:	eb0001fa 	bl	c100c28 <sprite_plot>
 c10043c:	ea000017 	b	c1004a0 <firemen_move+0xd0>
		};
	}else if(pscancode == PB_LEFT){
 c100440:	e59f3064 	ldr	r3, [pc, #100]	; c1004ac <firemen_move+0xdc>
 c100444:	e5d33000 	ldrb	r3, [r3]
 c100448:	e3530040 	cmp	r3, #64	; 0x40
 c10044c:	1a000013 	bne	c1004a0 <firemen_move+0xd0>
		if(firemenPos>0){
 c100450:	e59f3058 	ldr	r3, [pc, #88]	; c1004b0 <firemen_move+0xe0>
 c100454:	e5d33000 	ldrb	r3, [r3]
 c100458:	e3530000 	cmp	r3, #0
 c10045c:	0a00000f 	beq	c1004a0 <firemen_move+0xd0>
			sprite_clear(&firemen, firemenPos);
 c100460:	e59f3048 	ldr	r3, [pc, #72]	; c1004b0 <firemen_move+0xe0>
 c100464:	e5d33000 	ldrb	r3, [r3]
 c100468:	e59f0044 	ldr	r0, [pc, #68]	; c1004b4 <firemen_move+0xe4>
 c10046c:	e1a01003 	mov	r1, r3
 c100470:	eb000212 	bl	c100cc0 <sprite_clear>
			firemenPos--;
 c100474:	e59f3034 	ldr	r3, [pc, #52]	; c1004b0 <firemen_move+0xe0>
 c100478:	e5d33000 	ldrb	r3, [r3]
 c10047c:	e2433001 	sub	r3, r3, #1
 c100480:	e20320ff 	and	r2, r3, #255	; 0xff
 c100484:	e59f3024 	ldr	r3, [pc, #36]	; c1004b0 <firemen_move+0xe0>
 c100488:	e5c32000 	strb	r2, [r3]
			sprite_plot(&firemen, firemenPos);
 c10048c:	e59f301c 	ldr	r3, [pc, #28]	; c1004b0 <firemen_move+0xe0>
 c100490:	e5d33000 	ldrb	r3, [r3]
 c100494:	e59f0018 	ldr	r0, [pc, #24]	; c1004b4 <firemen_move+0xe4>
 c100498:	e1a01003 	mov	r1, r3
 c10049c:	eb0001e1 	bl	c100c28 <sprite_plot>
		}
	}
}
 c1004a0:	e24bd00c 	sub	sp, fp, #12
 c1004a4:	e89d6800 	ldm	sp, {fp, sp, lr}
 c1004a8:	e12fff1e 	bx	lr
 c1004ac:	0c112b96 	.word	0x0c112b96
 c1004b0:	0c112384 	.word	0x0c112384
 c1004b4:	0c107494 	.word	0x0c107494

0c1004b8 <pulsadores>:

void pulsadores ( void ){
 c1004b8:	e1a0c00d 	mov	ip, sp
 c1004bc:	e92dd800 	push	{fp, ip, lr, pc}
 c1004c0:	e24cb004 	sub	fp, ip, #4
	static boolean init = TRUE;
	static enum { wait_pdown, scan, wait_pup } state;

	if( init )
 c1004c4:	e59f30e8 	ldr	r3, [pc, #232]	; c1005b4 <pulsadores+0xfc>
 c1004c8:	e5d33000 	ldrb	r3, [r3]
 c1004cc:	e3530000 	cmp	r3, #0
 c1004d0:	0a000006 	beq	c1004f0 <pulsadores+0x38>
	{
		init  = FALSE;
 c1004d4:	e59f30d8 	ldr	r3, [pc, #216]	; c1005b4 <pulsadores+0xfc>
 c1004d8:	e3a02000 	mov	r2, #0
 c1004dc:	e5c32000 	strb	r2, [r3]
		state = wait_pdown;
 c1004e0:	e59f30d0 	ldr	r3, [pc, #208]	; c1005b8 <pulsadores+0x100>
 c1004e4:	e3a02000 	mov	r2, #0
 c1004e8:	e5c32000 	strb	r2, [r3]
 c1004ec:	ea00002d 	b	c1005a8 <pulsadores+0xf0>
	}
	else switch( state )
 c1004f0:	e59f30c0 	ldr	r3, [pc, #192]	; c1005b8 <pulsadores+0x100>
 c1004f4:	e5d33000 	ldrb	r3, [r3]
 c1004f8:	e3530001 	cmp	r3, #1
 c1004fc:	0a00000b 	beq	c100530 <pulsadores+0x78>
 c100500:	e3530002 	cmp	r3, #2
 c100504:	0a00001c 	beq	c10057c <pulsadores+0xc4>
 c100508:	e3530000 	cmp	r3, #0
 c10050c:	1a000025 	bne	c1005a8 <pulsadores+0xf0>
	{
		case wait_pdown:
			if( pb_pressed() )
 c100510:	eb000b84 	bl	c103328 <pb_pressed>
 c100514:	e1a03000 	mov	r3, r0
 c100518:	e3530000 	cmp	r3, #0
 c10051c:	0a00001e 	beq	c10059c <pulsadores+0xe4>
				state = scan;
 c100520:	e59f3090 	ldr	r3, [pc, #144]	; c1005b8 <pulsadores+0x100>
 c100524:	e3a02001 	mov	r2, #1
 c100528:	e5c32000 	strb	r2, [r3]
			break;
 c10052c:	ea00001d 	b	c1005a8 <pulsadores+0xf0>
		case scan:
			pscancode = pb_scan();
 c100530:	eb000b65 	bl	c1032cc <pb_scan>
 c100534:	e1a03000 	mov	r3, r0
 c100538:	e1a02003 	mov	r2, r3
 c10053c:	e59f3078 	ldr	r3, [pc, #120]	; c1005bc <pulsadores+0x104>
 c100540:	e5c32000 	strb	r2, [r3]
			if( pscancode == PB_RIGHT || pscancode == PB_LEFT){
 c100544:	e59f3070 	ldr	r3, [pc, #112]	; c1005bc <pulsadores+0x104>
 c100548:	e5d33000 	ldrb	r3, [r3]
 c10054c:	e3530080 	cmp	r3, #128	; 0x80
 c100550:	0a000003 	beq	c100564 <pulsadores+0xac>
 c100554:	e59f3060 	ldr	r3, [pc, #96]	; c1005bc <pulsadores+0x104>
 c100558:	e5d33000 	ldrb	r3, [r3]
 c10055c:	e3530040 	cmp	r3, #64	; 0x40
 c100560:	1a000001 	bne	c10056c <pulsadores+0xb4>
				fifo_enqueue( firemen_move );
 c100564:	e59f0054 	ldr	r0, [pc, #84]	; c1005c0 <pulsadores+0x108>
 c100568:	eb000291 	bl	c100fb4 <fifo_enqueue>
			}
			state = wait_pup;
 c10056c:	e59f3044 	ldr	r3, [pc, #68]	; c1005b8 <pulsadores+0x100>
 c100570:	e3a02002 	mov	r2, #2
 c100574:	e5c32000 	strb	r2, [r3]
			break;
 c100578:	ea00000a 	b	c1005a8 <pulsadores+0xf0>
		case wait_pup:
			if( !pb_pressed() )
 c10057c:	eb000b69 	bl	c103328 <pb_pressed>
 c100580:	e1a03000 	mov	r3, r0
 c100584:	e3530000 	cmp	r3, #0
 c100588:	1a000005 	bne	c1005a4 <pulsadores+0xec>
				state = wait_pdown;
 c10058c:	e59f3024 	ldr	r3, [pc, #36]	; c1005b8 <pulsadores+0x100>
 c100590:	e3a02000 	mov	r2, #0
 c100594:	e5c32000 	strb	r2, [r3]
			break;
 c100598:	ea000002 	b	c1005a8 <pulsadores+0xf0>
	else switch( state )
	{
		case wait_pdown:
			if( pb_pressed() )
				state = scan;
			break;
 c10059c:	e1a00000 	nop			; (mov r0, r0)
 c1005a0:	ea000000 	b	c1005a8 <pulsadores+0xf0>
			state = wait_pup;
			break;
		case wait_pup:
			if( !pb_pressed() )
				state = wait_pdown;
			break;
 c1005a4:	e1a00000 	nop			; (mov r0, r0)
	}
}
 c1005a8:	e24bd00c 	sub	sp, fp, #12
 c1005ac:	e89d6800 	ldm	sp, {fp, sp, lr}
 c1005b0:	e12fff1e 	bx	lr
 c1005b4:	0c108d25 	.word	0x0c108d25
 c1005b8:	0c112339 	.word	0x0c112339
 c1005bc:	0c112b96 	.word	0x0c112b96
 c1005c0:	0c1003d0 	.word	0x0c1003d0

0c1005c4 <keypad>:

void keypad ( void ){
 c1005c4:	e1a0c00d 	mov	ip, sp
 c1005c8:	e92dd800 	push	{fp, ip, lr, pc}
 c1005cc:	e24cb004 	sub	fp, ip, #4
	static boolean init = TRUE;
		static enum { wait_keydown, scan, wait_keyup } state;

		if( init )
 c1005d0:	e59f3118 	ldr	r3, [pc, #280]	; c1006f0 <keypad+0x12c>
 c1005d4:	e5d33000 	ldrb	r3, [r3]
 c1005d8:	e3530000 	cmp	r3, #0
 c1005dc:	0a000006 	beq	c1005fc <keypad+0x38>
		{
			init  = FALSE;
 c1005e0:	e59f3108 	ldr	r3, [pc, #264]	; c1006f0 <keypad+0x12c>
 c1005e4:	e3a02000 	mov	r2, #0
 c1005e8:	e5c32000 	strb	r2, [r3]
			state = wait_keydown;
 c1005ec:	e59f3100 	ldr	r3, [pc, #256]	; c1006f4 <keypad+0x130>
 c1005f0:	e3a02000 	mov	r2, #0
 c1005f4:	e5c32000 	strb	r2, [r3]
 c1005f8:	ea000039 	b	c1006e4 <keypad+0x120>
		}
		else switch( state )
 c1005fc:	e59f30f0 	ldr	r3, [pc, #240]	; c1006f4 <keypad+0x130>
 c100600:	e5d33000 	ldrb	r3, [r3]
 c100604:	e3530001 	cmp	r3, #1
 c100608:	0a00000b 	beq	c10063c <keypad+0x78>
 c10060c:	e3530002 	cmp	r3, #2
 c100610:	0a000028 	beq	c1006b8 <keypad+0xf4>
 c100614:	e3530000 	cmp	r3, #0
 c100618:	1a000031 	bne	c1006e4 <keypad+0x120>
		{
			case wait_keydown:
				if( keypad_pressed() )
 c10061c:	eb00053a 	bl	c101b0c <keypad_pressed>
 c100620:	e1a03000 	mov	r3, r0
 c100624:	e3530000 	cmp	r3, #0
 c100628:	0a00002a 	beq	c1006d8 <keypad+0x114>
					state = scan;
 c10062c:	e59f30c0 	ldr	r3, [pc, #192]	; c1006f4 <keypad+0x130>
 c100630:	e3a02001 	mov	r2, #1
 c100634:	e5c32000 	strb	r2, [r3]
				break;
 c100638:	ea000029 	b	c1006e4 <keypad+0x120>
			case scan:
				keyscancode = keypad_scan();
 c10063c:	eb0004a9 	bl	c1018e8 <keypad_scan>
 c100640:	e1a03000 	mov	r3, r0
 c100644:	e1a02003 	mov	r2, r3
 c100648:	e59f30a8 	ldr	r3, [pc, #168]	; c1006f8 <keypad+0x134>
 c10064c:	e5c32000 	strb	r2, [r3]
				if( keyscancode == KEYPAD_KEY0){
 c100650:	e59f30a0 	ldr	r3, [pc, #160]	; c1006f8 <keypad+0x134>
 c100654:	e5d33000 	ldrb	r3, [r3]
 c100658:	e3530000 	cmp	r3, #0
 c10065c:	1a000002 	bne	c10066c <keypad+0xa8>
					fifo_enqueue( reinicio );
 c100660:	e59f0094 	ldr	r0, [pc, #148]	; c1006fc <keypad+0x138>
 c100664:	eb000252 	bl	c100fb4 <fifo_enqueue>
 c100668:	ea00000e 	b	c1006a8 <keypad+0xe4>
				}else if (keyscancode==KEYPAD_KEY3){
 c10066c:	e59f3084 	ldr	r3, [pc, #132]	; c1006f8 <keypad+0x134>
 c100670:	e5d33000 	ldrb	r3, [r3]
 c100674:	e3530003 	cmp	r3, #3
 c100678:	1a00000a 	bne	c1006a8 <keypad+0xe4>
					if(!pause)pause = TRUE;
 c10067c:	e59f307c 	ldr	r3, [pc, #124]	; c100700 <keypad+0x13c>
 c100680:	e5d33000 	ldrb	r3, [r3]
 c100684:	e3530000 	cmp	r3, #0
 c100688:	1a000003 	bne	c10069c <keypad+0xd8>
 c10068c:	e59f306c 	ldr	r3, [pc, #108]	; c100700 <keypad+0x13c>
 c100690:	e3a02001 	mov	r2, #1
 c100694:	e5c32000 	strb	r2, [r3]
 c100698:	ea000002 	b	c1006a8 <keypad+0xe4>
					else pause=FALSE;
 c10069c:	e59f305c 	ldr	r3, [pc, #92]	; c100700 <keypad+0x13c>
 c1006a0:	e3a02000 	mov	r2, #0
 c1006a4:	e5c32000 	strb	r2, [r3]
				}
				state = wait_keyup;
 c1006a8:	e59f3044 	ldr	r3, [pc, #68]	; c1006f4 <keypad+0x130>
 c1006ac:	e3a02002 	mov	r2, #2
 c1006b0:	e5c32000 	strb	r2, [r3]
				break;
 c1006b4:	ea00000a 	b	c1006e4 <keypad+0x120>
			case wait_keyup:
				if( !keypad_pressed() )
 c1006b8:	eb000513 	bl	c101b0c <keypad_pressed>
 c1006bc:	e1a03000 	mov	r3, r0
 c1006c0:	e3530000 	cmp	r3, #0
 c1006c4:	1a000005 	bne	c1006e0 <keypad+0x11c>
					state = wait_keydown;
 c1006c8:	e59f3024 	ldr	r3, [pc, #36]	; c1006f4 <keypad+0x130>
 c1006cc:	e3a02000 	mov	r2, #0
 c1006d0:	e5c32000 	strb	r2, [r3]
				break;
 c1006d4:	ea000002 	b	c1006e4 <keypad+0x120>
		else switch( state )
		{
			case wait_keydown:
				if( keypad_pressed() )
					state = scan;
				break;
 c1006d8:	e1a00000 	nop			; (mov r0, r0)
 c1006dc:	ea000000 	b	c1006e4 <keypad+0x120>
				state = wait_keyup;
				break;
			case wait_keyup:
				if( !keypad_pressed() )
					state = wait_keydown;
				break;
 c1006e0:	e1a00000 	nop			; (mov r0, r0)
		}
}
 c1006e4:	e24bd00c 	sub	sp, fp, #12
 c1006e8:	e89d6800 	ldm	sp, {fp, sp, lr}
 c1006ec:	e12fff1e 	bx	lr
 c1006f0:	0c108d24 	.word	0x0c108d24
 c1006f4:	0c112338 	.word	0x0c112338
 c1006f8:	0c112385 	.word	0x0c112385
 c1006fc:	0c100704 	.word	0x0c100704
 c100700:	0c112381 	.word	0x0c112381

0c100704 <reinicio>:

void reinicio(){
 c100704:	e1a0c00d 	mov	ip, sp
 c100708:	e92dd800 	push	{fp, ip, lr, pc}
 c10070c:	e24cb004 	sub	fp, ip, #4
 c100710:	e24dd008 	sub	sp, sp, #8
    uint8 i;

    lcd_clear();
 c100714:	eb00066b 	bl	c1020c8 <lcd_clear>
    lcd_putWallpaper( LANDSCAPE );              // Dibuja el fondo de la pantalla
 c100718:	e59f00bc 	ldr	r0, [pc, #188]	; c1007dc <reinicio+0xd8>
 c10071c:	eb000a77 	bl	c103100 <lcd_putWallpaper>
	sprite_plot( &firemen, 0 );					// Dibuja los bomberos en todas sus posiciones posibles
 c100720:	e59f00b8 	ldr	r0, [pc, #184]	; c1007e0 <reinicio+0xdc>
 c100724:	e3a01000 	mov	r1, #0
 c100728:	eb00013e 	bl	c100c28 <sprite_plot>
	firemenPos=0;
 c10072c:	e59f30b0 	ldr	r3, [pc, #176]	; c1007e4 <reinicio+0xe0>
 c100730:	e3a02000 	mov	r2, #0
 c100734:	e5c32000 	strb	r2, [r3]
    for( i=0; i<life.num_plots; i++ )           // Dibuja los corazones en todas sus posiciones posibles
 c100738:	e3a03000 	mov	r3, #0
 c10073c:	e54b300d 	strb	r3, [fp, #-13]
 c100740:	ea000008 	b	c100768 <reinicio+0x64>
        sprite_plot( &life, i );
 c100744:	e55b300d 	ldrb	r3, [fp, #-13]
 c100748:	e1a03803 	lsl	r3, r3, #16
 c10074c:	e1a03823 	lsr	r3, r3, #16
 c100750:	e59f0090 	ldr	r0, [pc, #144]	; c1007e8 <reinicio+0xe4>
 c100754:	e1a01003 	mov	r1, r3
 c100758:	eb000132 	bl	c100c28 <sprite_plot>

    lcd_clear();
    lcd_putWallpaper( LANDSCAPE );              // Dibuja el fondo de la pantalla
	sprite_plot( &firemen, 0 );					// Dibuja los bomberos en todas sus posiciones posibles
	firemenPos=0;
    for( i=0; i<life.num_plots; i++ )           // Dibuja los corazones en todas sus posiciones posibles
 c10075c:	e55b300d 	ldrb	r3, [fp, #-13]
 c100760:	e2833001 	add	r3, r3, #1
 c100764:	e54b300d 	strb	r3, [fp, #-13]
 c100768:	e55b300d 	ldrb	r3, [fp, #-13]
 c10076c:	e1a03803 	lsl	r3, r3, #16
 c100770:	e1a02823 	lsr	r2, r3, #16
 c100774:	e59f306c 	ldr	r3, [pc, #108]	; c1007e8 <reinicio+0xe4>
 c100778:	e1d330b4 	ldrh	r3, [r3, #4]
 c10077c:	e1520003 	cmp	r2, r3
 c100780:	3affffef 	bcc	c100744 <reinicio+0x40>
        sprite_plot( &life, i );

    dummy_init();                               // Inicializa las tareas
 c100784:	ebfffe69 	bl	c100130 <dummy_init>
    count_init();
 c100788:	eb00009d 	bl	c100a04 <count_init>


	segs_putchar(vidas); 						//Muestra vidas en el display de 7 segmentos.
 c10078c:	e59f3058 	ldr	r3, [pc, #88]	; c1007ec <reinicio+0xe8>
 c100790:	e5d33000 	ldrb	r3, [r3]
 c100794:	e1a00003 	mov	r0, r3
 c100798:	eb000c48 	bl	c1038c0 <segs_putchar>

	pause=FALSE;
 c10079c:	e59f304c 	ldr	r3, [pc, #76]	; c1007f0 <reinicio+0xec>
 c1007a0:	e3a02000 	mov	r2, #0
 c1007a4:	e5c32000 	strb	r2, [r3]
	final = FALSE;
 c1007a8:	e59f3044 	ldr	r3, [pc, #68]	; c1007f4 <reinicio+0xf0>
 c1007ac:	e3a02000 	mov	r2, #0
 c1007b0:	e5c32000 	strb	r2, [r3]
    gameOver = FALSE;
 c1007b4:	e59f303c 	ldr	r3, [pc, #60]	; c1007f8 <reinicio+0xf4>
 c1007b8:	e3a02000 	mov	r2, #0
 c1007bc:	e5c32000 	strb	r2, [r3]

    fifo_init();                                  // Inicializa cola de funciones
 c1007c0:	eb0001eb 	bl	c100f74 <fifo_init>
    timer0_open_tick( isr_tick, TICKS_PER_SEC );  // Instala isr_tick como RTI del timer0
 c1007c4:	e59f0030 	ldr	r0, [pc, #48]	; c1007fc <reinicio+0xf8>
 c1007c8:	e3a01064 	mov	r1, #100	; 0x64
 c1007cc:	eb001412 	bl	c10581c <timer0_open_tick>

}
 c1007d0:	e24bd00c 	sub	sp, fp, #12
 c1007d4:	e89d6800 	ldm	sp, {fp, sp, lr}
 c1007d8:	e12fff1e 	bx	lr
 c1007dc:	0c250000 	.word	0x0c250000
 c1007e0:	0c107494 	.word	0x0c107494
 c1007e4:	0c112384 	.word	0x0c112384
 c1007e8:	0c107574 	.word	0x0c107574
 c1007ec:	0c112b92 	.word	0x0c112b92
 c1007f0:	0c112381 	.word	0x0c112381
 c1007f4:	0c112383 	.word	0x0c112383
 c1007f8:	0c112b90 	.word	0x0c112b90
 c1007fc:	0c100af0 	.word	0x0c100af0

0c100800 <pantalla_final>:

void pantalla_final( void ){
 c100800:	e1a0c00d 	mov	ip, sp
 c100804:	e92dd800 	push	{fp, ip, lr, pc}
 c100808:	e24cb004 	sub	fp, ip, #4
	final = TRUE;
 c10080c:	e59f3068 	ldr	r3, [pc, #104]	; c10087c <pantalla_final+0x7c>
 c100810:	e3a02001 	mov	r2, #1
 c100814:	e5c32000 	strb	r2, [r3]
	timer0_close();
 c100818:	eb0014de 	bl	c105b98 <timer0_close>
	lcd_clear();
 c10081c:	eb000629 	bl	c1020c8 <lcd_clear>
	if (vidas==0){
 c100820:	e59f3058 	ldr	r3, [pc, #88]	; c100880 <pantalla_final+0x80>
 c100824:	e5d33000 	ldrb	r3, [r3]
 c100828:	e3530000 	cmp	r3, #0
 c10082c:	1a000007 	bne	c100850 <pantalla_final+0x50>
		lcd_putWallpaper( GAME_OVER );
 c100830:	e59f004c 	ldr	r0, [pc, #76]	; c100884 <pantalla_final+0x84>
 c100834:	eb000a31 	bl	c103100 <lcd_putWallpaper>
		lcd_puts(45, 7, BLACK, "Pulse keypad 0 para reiniciar");
 c100838:	e3a0002d 	mov	r0, #45	; 0x2d
 c10083c:	e3a01007 	mov	r1, #7
 c100840:	e3a0200f 	mov	r2, #15
 c100844:	e59f303c 	ldr	r3, [pc, #60]	; c100888 <pantalla_final+0x88>
 c100848:	eb000821 	bl	c1028d4 <lcd_puts>
 c10084c:	ea000004 	b	c100864 <pantalla_final+0x64>
	}else{
		lcd_putWallpaper( WIN );
 c100850:	e59f0034 	ldr	r0, [pc, #52]	; c10088c <pantalla_final+0x8c>
 c100854:	eb000a29 	bl	c103100 <lcd_putWallpaper>
        gameOver = TRUE;                    // ... señaliza fin del juego
 c100858:	e59f3030 	ldr	r3, [pc, #48]	; c100890 <pantalla_final+0x90>
 c10085c:	e3a02001 	mov	r2, #1
 c100860:	e5c32000 	strb	r2, [r3]
	}
    timer0_open_tick( isr_tick, TICKS_PER_SEC );  // Instala isr_tick como RTI del timer0
 c100864:	e59f0028 	ldr	r0, [pc, #40]	; c100894 <pantalla_final+0x94>
 c100868:	e3a01064 	mov	r1, #100	; 0x64
 c10086c:	eb0013ea 	bl	c10581c <timer0_open_tick>
}
 c100870:	e24bd00c 	sub	sp, fp, #12
 c100874:	e89d6800 	ldm	sp, {fp, sp, lr}
 c100878:	e12fff1e 	bx	lr
 c10087c:	0c112383 	.word	0x0c112383
 c100880:	0c112b92 	.word	0x0c112b92
 c100884:	0c240000 	.word	0x0c240000
 c100888:	0c107600 	.word	0x0c107600
 c10088c:	0c230000 	.word	0x0c230000
 c100890:	0c112b90 	.word	0x0c112b90
 c100894:	0c100af0 	.word	0x0c100af0

0c100898 <sonido_move>:

void sonido_move(){
 c100898:	e1a0c00d 	mov	ip, sp
 c10089c:	e92dd800 	push	{fp, ip, lr, pc}
 c1008a0:	e24cb004 	sub	fp, ip, #4
	iis_play(MOVE,MOVE_SIZE,FALSE);
 c1008a4:	e59f0014 	ldr	r0, [pc, #20]	; c1008c0 <sonido_move+0x28>
 c1008a8:	e3a01c19 	mov	r1, #6400	; 0x1900
 c1008ac:	e3a02000 	mov	r2, #0
 c1008b0:	eb0002da 	bl	c101420 <iis_play>
}
 c1008b4:	e24bd00c 	sub	sp, fp, #12
 c1008b8:	e89d6800 	ldm	sp, {fp, sp, lr}
 c1008bc:	e12fff1e 	bx	lr
 c1008c0:	0c2a0000 	.word	0x0c2a0000

0c1008c4 <sonido_cama>:

void sonido_cama(){
 c1008c4:	e1a0c00d 	mov	ip, sp
 c1008c8:	e92dd800 	push	{fp, ip, lr, pc}
 c1008cc:	e24cb004 	sub	fp, ip, #4
	iis_play(CAMA,CAMA_SIZE,FALSE);
 c1008d0:	e59f0014 	ldr	r0, [pc, #20]	; c1008ec <sonido_cama+0x28>
 c1008d4:	e3a01c19 	mov	r1, #6400	; 0x1900
 c1008d8:	e3a02000 	mov	r2, #0
 c1008dc:	eb0002cf 	bl	c101420 <iis_play>
}
 c1008e0:	e24bd00c 	sub	sp, fp, #12
 c1008e4:	e89d6800 	ldm	sp, {fp, sp, lr}
 c1008e8:	e12fff1e 	bx	lr
 c1008ec:	0c280000 	.word	0x0c280000

0c1008f0 <efecto_muerte>:

void efecto_muerte(){
 c1008f0:	e1a0c00d 	mov	ip, sp
 c1008f4:	e92dd800 	push	{fp, ip, lr, pc}
 c1008f8:	e24cb004 	sub	fp, ip, #4
 c1008fc:	e24dd008 	sub	sp, sp, #8
	uint8 i;
	timer0_close();
 c100900:	eb0014a4 	bl	c105b98 <timer0_close>
	iis_play(MUERTE,MUERTE_SIZE,FALSE);
 c100904:	e59f00c8 	ldr	r0, [pc, #200]	; c1009d4 <efecto_muerte+0xe4>
 c100908:	e3a01a19 	mov	r1, #102400	; 0x19000
 c10090c:	e3a02000 	mov	r2, #0
 c100910:	eb0002c2 	bl	c101420 <iis_play>
	if (vidas==0){
 c100914:	e59f30bc 	ldr	r3, [pc, #188]	; c1009d8 <efecto_muerte+0xe8>
 c100918:	e5d33000 	ldrb	r3, [r3]
 c10091c:	e3530000 	cmp	r3, #0
 c100920:	1a000002 	bne	c100930 <efecto_muerte+0x40>
		fifo_enqueue(pantalla_final);
 c100924:	e59f00b0 	ldr	r0, [pc, #176]	; c1009dc <efecto_muerte+0xec>
 c100928:	eb0001a1 	bl	c100fb4 <fifo_enqueue>
 c10092c:	ea00000b 	b	c100960 <efecto_muerte+0x70>
	}else{
		sprite_clear(&crash, posCrash);
 c100930:	e59f30a8 	ldr	r3, [pc, #168]	; c1009e0 <efecto_muerte+0xf0>
 c100934:	e5d33000 	ldrb	r3, [r3]
 c100938:	e59f00a4 	ldr	r0, [pc, #164]	; c1009e4 <efecto_muerte+0xf4>
 c10093c:	e1a01003 	mov	r1, r3
 c100940:	eb0000de 	bl	c100cc0 <sprite_clear>
		lcd_putWallpaper(LANDSCAPE);
 c100944:	e59f009c 	ldr	r0, [pc, #156]	; c1009e8 <efecto_muerte+0xf8>
 c100948:	eb0009ec 	bl	c103100 <lcd_putWallpaper>
		sprite_plot(&firemen, firemenPos);
 c10094c:	e59f3098 	ldr	r3, [pc, #152]	; c1009ec <efecto_muerte+0xfc>
 c100950:	e5d33000 	ldrb	r3, [r3]
 c100954:	e59f0094 	ldr	r0, [pc, #148]	; c1009f0 <efecto_muerte+0x100>
 c100958:	e1a01003 	mov	r1, r3
 c10095c:	eb0000b1 	bl	c100c28 <sprite_plot>
	}

	for( i=0; i<vidas; i++ )           // Dibuja los corazones en todas sus posiciones posibles
 c100960:	e3a03000 	mov	r3, #0
 c100964:	e54b300d 	strb	r3, [fp, #-13]
 c100968:	ea000008 	b	c100990 <efecto_muerte+0xa0>
		sprite_plot( &life, i );
 c10096c:	e55b300d 	ldrb	r3, [fp, #-13]
 c100970:	e1a03803 	lsl	r3, r3, #16
 c100974:	e1a03823 	lsr	r3, r3, #16
 c100978:	e59f0074 	ldr	r0, [pc, #116]	; c1009f4 <efecto_muerte+0x104>
 c10097c:	e1a01003 	mov	r1, r3
 c100980:	eb0000a8 	bl	c100c28 <sprite_plot>
		sprite_clear(&crash, posCrash);
		lcd_putWallpaper(LANDSCAPE);
		sprite_plot(&firemen, firemenPos);
	}

	for( i=0; i<vidas; i++ )           // Dibuja los corazones en todas sus posiciones posibles
 c100984:	e55b300d 	ldrb	r3, [fp, #-13]
 c100988:	e2833001 	add	r3, r3, #1
 c10098c:	e54b300d 	strb	r3, [fp, #-13]
 c100990:	e59f3040 	ldr	r3, [pc, #64]	; c1009d8 <efecto_muerte+0xe8>
 c100994:	e5d33000 	ldrb	r3, [r3]
 c100998:	e55b200d 	ldrb	r2, [fp, #-13]
 c10099c:	e1520003 	cmp	r2, r3
 c1009a0:	3afffff1 	bcc	c10096c <efecto_muerte+0x7c>
		sprite_plot( &life, i );
	lcd_putint_x2( 287, 0, BLACK, count );  // ... y lo dibuja
 c1009a4:	e59f304c 	ldr	r3, [pc, #76]	; c1009f8 <efecto_muerte+0x108>
 c1009a8:	e1d330b0 	ldrh	r3, [r3]
 c1009ac:	e59f0048 	ldr	r0, [pc, #72]	; c1009fc <efecto_muerte+0x10c>
 c1009b0:	e3a01000 	mov	r1, #0
 c1009b4:	e3a0200f 	mov	r2, #15
 c1009b8:	eb000939 	bl	c102ea4 <lcd_putint_x2>

	timer0_open_tick( isr_tick, TICKS_PER_SEC );  // Instala isr_tick como RTI del timer0
 c1009bc:	e59f003c 	ldr	r0, [pc, #60]	; c100a00 <efecto_muerte+0x110>
 c1009c0:	e3a01064 	mov	r1, #100	; 0x64
 c1009c4:	eb001394 	bl	c10581c <timer0_open_tick>


}
 c1009c8:	e24bd00c 	sub	sp, fp, #12
 c1009cc:	e89d6800 	ldm	sp, {fp, sp, lr}
 c1009d0:	e12fff1e 	bx	lr
 c1009d4:	0c2c0000 	.word	0x0c2c0000
 c1009d8:	0c112b92 	.word	0x0c112b92
 c1009dc:	0c100800 	.word	0x0c100800
 c1009e0:	0c112b91 	.word	0x0c112b91
 c1009e4:	0c107554 	.word	0x0c107554
 c1009e8:	0c250000 	.word	0x0c250000
 c1009ec:	0c112384 	.word	0x0c112384
 c1009f0:	0c107494 	.word	0x0c107494
 c1009f4:	0c107574 	.word	0x0c107574
 c1009f8:	0c112b94 	.word	0x0c112b94
 c1009fc:	0000011f 	.word	0x0000011f
 c100a00:	0c100af0 	.word	0x0c100af0

0c100a04 <count_init>:

/*******************************************************************/

void count_init( void )
{
 c100a04:	e1a0c00d 	mov	ip, sp
 c100a08:	e92dd800 	push	{fp, ip, lr, pc}
 c100a0c:	e24cb004 	sub	fp, ip, #4
    count = 0;                              // Inicializa el contador de dummies salvados...
 c100a10:	e59f3028 	ldr	r3, [pc, #40]	; c100a40 <count_init+0x3c>
 c100a14:	e3a02000 	mov	r2, #0
 c100a18:	e1c320b0 	strh	r2, [r3]
    lcd_putint_x2( 287, 0, BLACK, count );  // ... y lo dibuja
 c100a1c:	e59f301c 	ldr	r3, [pc, #28]	; c100a40 <count_init+0x3c>
 c100a20:	e1d330b0 	ldrh	r3, [r3]
 c100a24:	e59f0018 	ldr	r0, [pc, #24]	; c100a44 <count_init+0x40>
 c100a28:	e3a01000 	mov	r1, #0
 c100a2c:	e3a0200f 	mov	r2, #15
 c100a30:	eb00091b 	bl	c102ea4 <lcd_putint_x2>
}
 c100a34:	e24bd00c 	sub	sp, fp, #12
 c100a38:	e89d6800 	ldm	sp, {fp, sp, lr}
 c100a3c:	e12fff1e 	bx	lr
 c100a40:	0c112b94 	.word	0x0c112b94
 c100a44:	0000011f 	.word	0x0000011f

0c100a48 <count_inc>:

void count_inc( void )
{
 c100a48:	e1a0c00d 	mov	ip, sp
 c100a4c:	e92dd800 	push	{fp, ip, lr, pc}
 c100a50:	e24cb004 	sub	fp, ip, #4
    count++; // Incrementa el contador de dummies salvados
 c100a54:	e59f3084 	ldr	r3, [pc, #132]	; c100ae0 <count_inc+0x98>
 c100a58:	e1d330b0 	ldrh	r3, [r3]
 c100a5c:	e2833001 	add	r3, r3, #1
 c100a60:	e1a03803 	lsl	r3, r3, #16
 c100a64:	e1a02823 	lsr	r2, r3, #16
 c100a68:	e59f3070 	ldr	r3, [pc, #112]	; c100ae0 <count_inc+0x98>
 c100a6c:	e1c320b0 	strh	r2, [r3]
    lcd_putint_x2( 287, 0, BLACK, count );
 c100a70:	e59f3068 	ldr	r3, [pc, #104]	; c100ae0 <count_inc+0x98>
 c100a74:	e1d330b0 	ldrh	r3, [r3]
 c100a78:	e59f0064 	ldr	r0, [pc, #100]	; c100ae4 <count_inc+0x9c>
 c100a7c:	e3a01000 	mov	r1, #0
 c100a80:	e3a0200f 	mov	r2, #15
 c100a84:	eb000906 	bl	c102ea4 <lcd_putint_x2>
    switch(count){
 c100a88:	e59f3050 	ldr	r3, [pc, #80]	; c100ae0 <count_inc+0x98>
 c100a8c:	e1d330b0 	ldrh	r3, [r3]
 c100a90:	e3530014 	cmp	r3, #20
 c100a94:	0a000007 	beq	c100ab8 <count_inc+0x70>
 c100a98:	e353001e 	cmp	r3, #30
 c100a9c:	0a000009 	beq	c100ac8 <count_inc+0x80>
 c100aa0:	e353000a 	cmp	r3, #10
 c100aa4:	1a00000a 	bne	c100ad4 <count_inc+0x8c>
    	case 10:
    		vDummy=40;
 c100aa8:	e59f3038 	ldr	r3, [pc, #56]	; c100ae8 <count_inc+0xa0>
 c100aac:	e3a02028 	mov	r2, #40	; 0x28
 c100ab0:	e5c32000 	strb	r2, [r3]
    		break;
 c100ab4:	ea000006 	b	c100ad4 <count_inc+0x8c>
    	case 20:
    		vDummy=30;
 c100ab8:	e59f3028 	ldr	r3, [pc, #40]	; c100ae8 <count_inc+0xa0>
 c100abc:	e3a0201e 	mov	r2, #30
 c100ac0:	e5c32000 	strb	r2, [r3]
    		break;
 c100ac4:	ea000002 	b	c100ad4 <count_inc+0x8c>
    	case 30:
    		fifo_enqueue(pantalla_final);
 c100ac8:	e59f001c 	ldr	r0, [pc, #28]	; c100aec <count_inc+0xa4>
 c100acc:	eb000138 	bl	c100fb4 <fifo_enqueue>
    		break;
 c100ad0:	e1a00000 	nop			; (mov r0, r0)
    }
}
 c100ad4:	e24bd00c 	sub	sp, fp, #12
 c100ad8:	e89d6800 	ldm	sp, {fp, sp, lr}
 c100adc:	e12fff1e 	bx	lr
 c100ae0:	0c112b94 	.word	0x0c112b94
 c100ae4:	0000011f 	.word	0x0000011f
 c100ae8:	0c112b97 	.word	0x0c112b97
 c100aec:	0c100800 	.word	0x0c100800

0c100af0 <isr_tick>:

/*******************************************************************/

void isr_tick( void )
{   
 c100af0:	e52dc004 	push	{ip}		; (str ip, [sp, #-4]!)
 c100af4:	e1a0c00d 	mov	ip, sp
 c100af8:	e92dd80f 	push	{r0, r1, r2, r3, fp, ip, lr, pc}
 c100afc:	e24cb004 	sub	fp, ip, #4
    static uint16 contTicks    = 50;
    static uint16 cont5ticks    = 5;

    if( !(--cont5ticks) )
 c100b00:	e59f30f4 	ldr	r3, [pc, #244]	; c100bfc <isr_tick+0x10c>
 c100b04:	e1d330b0 	ldrh	r3, [r3]
 c100b08:	e2433001 	sub	r3, r3, #1
 c100b0c:	e1a03803 	lsl	r3, r3, #16
 c100b10:	e1a02823 	lsr	r2, r3, #16
 c100b14:	e59f30e0 	ldr	r3, [pc, #224]	; c100bfc <isr_tick+0x10c>
 c100b18:	e1c320b0 	strh	r2, [r3]
 c100b1c:	e59f30d8 	ldr	r3, [pc, #216]	; c100bfc <isr_tick+0x10c>
 c100b20:	e1d330b0 	ldrh	r3, [r3]
 c100b24:	e3530000 	cmp	r3, #0
 c100b28:	1a00000e 	bne	c100b68 <isr_tick+0x78>
	{
		cont5ticks = 5;
 c100b2c:	e59f30c8 	ldr	r3, [pc, #200]	; c100bfc <isr_tick+0x10c>
 c100b30:	e3a02005 	mov	r2, #5
 c100b34:	e1c320b0 	strh	r2, [r3]
		if (!final&&!pause)fifo_enqueue( pulsadores );
 c100b38:	e59f30c0 	ldr	r3, [pc, #192]	; c100c00 <isr_tick+0x110>
 c100b3c:	e5d33000 	ldrb	r3, [r3]
 c100b40:	e3530000 	cmp	r3, #0
 c100b44:	1a000005 	bne	c100b60 <isr_tick+0x70>
 c100b48:	e59f30b4 	ldr	r3, [pc, #180]	; c100c04 <isr_tick+0x114>
 c100b4c:	e5d33000 	ldrb	r3, [r3]
 c100b50:	e3530000 	cmp	r3, #0
 c100b54:	1a000001 	bne	c100b60 <isr_tick+0x70>
 c100b58:	e59f00a8 	ldr	r0, [pc, #168]	; c100c08 <isr_tick+0x118>
 c100b5c:	eb000114 	bl	c100fb4 <fifo_enqueue>
		fifo_enqueue(keypad);
 c100b60:	e59f00a4 	ldr	r0, [pc, #164]	; c100c0c <isr_tick+0x11c>
 c100b64:	eb000112 	bl	c100fb4 <fifo_enqueue>
	}
    if (!final&&!pause){
 c100b68:	e59f3090 	ldr	r3, [pc, #144]	; c100c00 <isr_tick+0x110>
 c100b6c:	e5d33000 	ldrb	r3, [r3]
 c100b70:	e3530000 	cmp	r3, #0
 c100b74:	1a000019 	bne	c100be0 <isr_tick+0xf0>
 c100b78:	e59f3084 	ldr	r3, [pc, #132]	; c100c04 <isr_tick+0x114>
 c100b7c:	e5d33000 	ldrb	r3, [r3]
 c100b80:	e3530000 	cmp	r3, #0
 c100b84:	1a000015 	bne	c100be0 <isr_tick+0xf0>
		if( !(--contTicks) )
 c100b88:	e59f3080 	ldr	r3, [pc, #128]	; c100c10 <isr_tick+0x120>
 c100b8c:	e1d330b0 	ldrh	r3, [r3]
 c100b90:	e2433001 	sub	r3, r3, #1
 c100b94:	e1a03803 	lsl	r3, r3, #16
 c100b98:	e1a02823 	lsr	r2, r3, #16
 c100b9c:	e59f306c 	ldr	r3, [pc, #108]	; c100c10 <isr_tick+0x120>
 c100ba0:	e1c320b0 	strh	r2, [r3]
 c100ba4:	e59f3064 	ldr	r3, [pc, #100]	; c100c10 <isr_tick+0x120>
 c100ba8:	e1d330b0 	ldrh	r3, [r3]
 c100bac:	e3530000 	cmp	r3, #0
 c100bb0:	1a00000a 	bne	c100be0 <isr_tick+0xf0>
		{
			contTicks = vDummy;
 c100bb4:	e59f3058 	ldr	r3, [pc, #88]	; c100c14 <isr_tick+0x124>
 c100bb8:	e5d33000 	ldrb	r3, [r3]
 c100bbc:	e1a02003 	mov	r2, r3
 c100bc0:	e59f3048 	ldr	r3, [pc, #72]	; c100c10 <isr_tick+0x120>
 c100bc4:	e1c320b0 	strh	r2, [r3]
			fifo_enqueue( sonido_move);
 c100bc8:	e59f0048 	ldr	r0, [pc, #72]	; c100c18 <isr_tick+0x128>
 c100bcc:	eb0000f8 	bl	c100fb4 <fifo_enqueue>
			fifo_enqueue( dummy_move );
 c100bd0:	e59f0044 	ldr	r0, [pc, #68]	; c100c1c <isr_tick+0x12c>
 c100bd4:	eb0000f6 	bl	c100fb4 <fifo_enqueue>
			fifo_enqueue( dummy_dead );
 c100bd8:	e59f0040 	ldr	r0, [pc, #64]	; c100c20 <isr_tick+0x130>
 c100bdc:	eb0000f4 	bl	c100fb4 <fifo_enqueue>
		}
	}

    I_ISPC = BIT_TIMER0;
 c100be0:	e59f303c 	ldr	r3, [pc, #60]	; c100c24 <isr_tick+0x134>
 c100be4:	e3a02a02 	mov	r2, #8192	; 0x2000
 c100be8:	e5832000 	str	r2, [r3]
};
 c100bec:	e24bd01c 	sub	sp, fp, #28
 c100bf0:	e89d680f 	ldm	sp, {r0, r1, r2, r3, fp, sp, lr}
 c100bf4:	e49dc004 	pop	{ip}		; (ldr ip, [sp], #4)
 c100bf8:	e25ef004 	subs	pc, lr, #4
 c100bfc:	0c108d20 	.word	0x0c108d20
 c100c00:	0c112383 	.word	0x0c112383
 c100c04:	0c112381 	.word	0x0c112381
 c100c08:	0c1004b8 	.word	0x0c1004b8
 c100c0c:	0c1005c4 	.word	0x0c1005c4
 c100c10:	0c108d22 	.word	0x0c108d22
 c100c14:	0c112b97 	.word	0x0c112b97
 c100c18:	0c100898 	.word	0x0c100898
 c100c1c:	0c100188 	.word	0x0c100188
 c100c20:	0c100224 	.word	0x0c100224
 c100c24:	01e00024 	.word	0x01e00024

0c100c28 <sprite_plot>:

void lcd_putBmp( uint8 *bmp, uint16 x, uint16 y, uint16 xsize, uint16 ysize );
void lcd_clearWindow( uint16 x, uint16 y, uint16 xsize, uint16 ysize );

void sprite_plot( sprite_t const *sprite, uint16 num )
{
 c100c28:	e1a0c00d 	mov	ip, sp
 c100c2c:	e92dd800 	push	{fp, ip, lr, pc}
 c100c30:	e24cb004 	sub	fp, ip, #4
 c100c34:	e24dd010 	sub	sp, sp, #16
 c100c38:	e50b0010 	str	r0, [fp, #-16]
 c100c3c:	e1a03001 	mov	r3, r1
 c100c40:	e14b31b2 	strh	r3, [fp, #-18]	; 0xffffffee
    lcd_putBmp( sprite->plots[num].plot, sprite->plots[num].x, sprite->plots[num].y, sprite->width, sprite->height );
 c100c44:	e15b31b2 	ldrh	r3, [fp, #-18]	; 0xffffffee
 c100c48:	e51b1010 	ldr	r1, [fp, #-16]
 c100c4c:	e2832001 	add	r2, r3, #1
 c100c50:	e3a03004 	mov	r3, #4
 c100c54:	e1a02182 	lsl	r2, r2, #3
 c100c58:	e0812002 	add	r2, r1, r2
 c100c5c:	e0823003 	add	r3, r2, r3
 c100c60:	e5930000 	ldr	r0, [r3]
 c100c64:	e15b31b2 	ldrh	r3, [fp, #-18]	; 0xffffffee
 c100c68:	e51b2010 	ldr	r2, [fp, #-16]
 c100c6c:	e2833001 	add	r3, r3, #1
 c100c70:	e1a03183 	lsl	r3, r3, #3
 c100c74:	e0823003 	add	r3, r2, r3
 c100c78:	e1d310b0 	ldrh	r1, [r3]
 c100c7c:	e15b31b2 	ldrh	r3, [fp, #-18]	; 0xffffffee
 c100c80:	e51bc010 	ldr	ip, [fp, #-16]
 c100c84:	e2832001 	add	r2, r3, #1
 c100c88:	e3a03002 	mov	r3, #2
 c100c8c:	e1a02182 	lsl	r2, r2, #3
 c100c90:	e08c2002 	add	r2, ip, r2
 c100c94:	e0823003 	add	r3, r2, r3
 c100c98:	e1d320b0 	ldrh	r2, [r3]
 c100c9c:	e51b3010 	ldr	r3, [fp, #-16]
 c100ca0:	e1d330b0 	ldrh	r3, [r3]
 c100ca4:	e51bc010 	ldr	ip, [fp, #-16]
 c100ca8:	e1dcc0b2 	ldrh	ip, [ip, #2]
 c100cac:	e58dc000 	str	ip, [sp]
 c100cb0:	eb00001f 	bl	c100d34 <lcd_putBmp>
}
 c100cb4:	e24bd00c 	sub	sp, fp, #12
 c100cb8:	e89d6800 	ldm	sp, {fp, sp, lr}
 c100cbc:	e12fff1e 	bx	lr

0c100cc0 <sprite_clear>:

void sprite_clear( sprite_t const *sprite, uint16 num )
{
 c100cc0:	e1a0c00d 	mov	ip, sp
 c100cc4:	e92dd800 	push	{fp, ip, lr, pc}
 c100cc8:	e24cb004 	sub	fp, ip, #4
 c100ccc:	e24dd008 	sub	sp, sp, #8
 c100cd0:	e50b0010 	str	r0, [fp, #-16]
 c100cd4:	e1a03001 	mov	r3, r1
 c100cd8:	e14b31b2 	strh	r3, [fp, #-18]	; 0xffffffee
    lcd_clearWindow( sprite->plots[num].x, sprite->plots[num].y, sprite->width, sprite->height );
 c100cdc:	e15b31b2 	ldrh	r3, [fp, #-18]	; 0xffffffee
 c100ce0:	e51b2010 	ldr	r2, [fp, #-16]
 c100ce4:	e2833001 	add	r3, r3, #1
 c100ce8:	e1a03183 	lsl	r3, r3, #3
 c100cec:	e0823003 	add	r3, r2, r3
 c100cf0:	e1d300b0 	ldrh	r0, [r3]
 c100cf4:	e15b31b2 	ldrh	r3, [fp, #-18]	; 0xffffffee
 c100cf8:	e51b1010 	ldr	r1, [fp, #-16]
 c100cfc:	e2832001 	add	r2, r3, #1
 c100d00:	e3a03002 	mov	r3, #2
 c100d04:	e1a02182 	lsl	r2, r2, #3
 c100d08:	e0812002 	add	r2, r1, r2
 c100d0c:	e0823003 	add	r3, r2, r3
 c100d10:	e1d310b0 	ldrh	r1, [r3]
 c100d14:	e51b3010 	ldr	r3, [fp, #-16]
 c100d18:	e1d320b0 	ldrh	r2, [r3]
 c100d1c:	e51b3010 	ldr	r3, [fp, #-16]
 c100d20:	e1d330b2 	ldrh	r3, [r3, #2]
 c100d24:	eb000069 	bl	c100ed0 <lcd_clearWindow>
}
 c100d28:	e24bd00c 	sub	sp, fp, #12
 c100d2c:	e89d6800 	ldm	sp, {fp, sp, lr}
 c100d30:	e12fff1e 	bx	lr

0c100d34 <lcd_putBmp>:
/*
** Muestra un BMP de tamaño (xsize, ysize) píxeles en la posición (x,y)
** Esta función es una generalización de lcd_putWallpaper
*/
void lcd_putBmp( uint8 *bmp, uint16 x, uint16 y, uint16 xsize, uint16 ysize )
{
 c100d34:	e1a0c00d 	mov	ip, sp
 c100d38:	e92dd800 	push	{fp, ip, lr, pc}
 c100d3c:	e24cb004 	sub	fp, ip, #4
 c100d40:	e24dd020 	sub	sp, sp, #32
 c100d44:	e50b0020 	str	r0, [fp, #-32]	; 0xffffffe0
 c100d48:	e14b12b2 	strh	r1, [fp, #-34]	; 0xffffffde
 c100d4c:	e14b22b4 	strh	r2, [fp, #-36]	; 0xffffffdc
 c100d50:	e14b32b6 	strh	r3, [fp, #-38]	; 0xffffffda
	uint32 headerSize;

	uint16 xSrc, ySrc, yDst;
	uint16 offsetSrc, offsetDst;

	headerSize = bmp[10] + (bmp[11] << 8) + (bmp[12] << 16) + (bmp[13] << 24);
 c100d54:	e51b3020 	ldr	r3, [fp, #-32]	; 0xffffffe0
 c100d58:	e283300a 	add	r3, r3, #10
 c100d5c:	e5d33000 	ldrb	r3, [r3]
 c100d60:	e1a02003 	mov	r2, r3
 c100d64:	e51b3020 	ldr	r3, [fp, #-32]	; 0xffffffe0
 c100d68:	e283300b 	add	r3, r3, #11
 c100d6c:	e5d33000 	ldrb	r3, [r3]
 c100d70:	e1a03403 	lsl	r3, r3, #8
 c100d74:	e0822003 	add	r2, r2, r3
 c100d78:	e51b3020 	ldr	r3, [fp, #-32]	; 0xffffffe0
 c100d7c:	e283300c 	add	r3, r3, #12
 c100d80:	e5d33000 	ldrb	r3, [r3]
 c100d84:	e1a03803 	lsl	r3, r3, #16
 c100d88:	e0822003 	add	r2, r2, r3
 c100d8c:	e51b3020 	ldr	r3, [fp, #-32]	; 0xffffffe0
 c100d90:	e283300d 	add	r3, r3, #13
 c100d94:	e5d33000 	ldrb	r3, [r3]
 c100d98:	e1a03c03 	lsl	r3, r3, #24
 c100d9c:	e0823003 	add	r3, r2, r3
 c100da0:	e50b3018 	str	r3, [fp, #-24]	; 0xffffffe8

	bmp = bmp + headerSize; 
 c100da4:	e51b2020 	ldr	r2, [fp, #-32]	; 0xffffffe0
 c100da8:	e51b3018 	ldr	r3, [fp, #-24]	; 0xffffffe8
 c100dac:	e0823003 	add	r3, r2, r3
 c100db0:	e50b3020 	str	r3, [fp, #-32]	; 0xffffffe0

	for( ySrc=0, yDst=ysize-1; ySrc<ysize; ySrc++, yDst-- )
 c100db4:	e3a03000 	mov	r3, #0
 c100db8:	e14b31b0 	strh	r3, [fp, #-16]
 c100dbc:	e1db30b4 	ldrh	r3, [fp, #4]
 c100dc0:	e2433001 	sub	r3, r3, #1
 c100dc4:	e14b31b2 	strh	r3, [fp, #-18]	; 0xffffffee
 c100dc8:	ea000038 	b	c100eb0 <lcd_putBmp+0x17c>
	{
		offsetDst = (yDst+y)*LCD_WIDTH/2+x/2;
 c100dcc:	e15b21b2 	ldrh	r2, [fp, #-18]	; 0xffffffee
 c100dd0:	e15b32b4 	ldrh	r3, [fp, #-36]	; 0xffffffdc
 c100dd4:	e0822003 	add	r2, r2, r3
 c100dd8:	e1a03002 	mov	r3, r2
 c100ddc:	e1a03103 	lsl	r3, r3, #2
 c100de0:	e0833002 	add	r3, r3, r2
 c100de4:	e1a03303 	lsl	r3, r3, #6
 c100de8:	e1a02fa3 	lsr	r2, r3, #31
 c100dec:	e0823003 	add	r3, r2, r3
 c100df0:	e1a030c3 	asr	r3, r3, #1
 c100df4:	e1a03803 	lsl	r3, r3, #16
 c100df8:	e1a02823 	lsr	r2, r3, #16
 c100dfc:	e15b32b2 	ldrh	r3, [fp, #-34]	; 0xffffffde
 c100e00:	e1a030a3 	lsr	r3, r3, #1
 c100e04:	e1a03803 	lsl	r3, r3, #16
 c100e08:	e1a03823 	lsr	r3, r3, #16
 c100e0c:	e0823003 	add	r3, r2, r3
 c100e10:	e14b31ba 	strh	r3, [fp, #-26]	; 0xffffffe6
		offsetSrc = ySrc*xsize/2;
 c100e14:	e15b31b0 	ldrh	r3, [fp, #-16]
 c100e18:	e15b22b6 	ldrh	r2, [fp, #-38]	; 0xffffffda
 c100e1c:	e0030392 	mul	r3, r2, r3
 c100e20:	e1a02fa3 	lsr	r2, r3, #31
 c100e24:	e0823003 	add	r3, r2, r3
 c100e28:	e1a030c3 	asr	r3, r3, #1
 c100e2c:	e14b31bc 	strh	r3, [fp, #-28]	; 0xffffffe4
		for( xSrc=0; xSrc<xsize/2; xSrc++ )
 c100e30:	e3a03000 	mov	r3, #0
 c100e34:	e14b30be 	strh	r3, [fp, #-14]
 c100e38:	ea00000f 	b	c100e7c <lcd_putBmp+0x148>
			lcd_buffer[offsetDst+xSrc] = ~bmp[offsetSrc+xSrc];
 c100e3c:	e15b21ba 	ldrh	r2, [fp, #-26]	; 0xffffffe6
 c100e40:	e15b30be 	ldrh	r3, [fp, #-14]
 c100e44:	e0823003 	add	r3, r2, r3
 c100e48:	e15b11bc 	ldrh	r1, [fp, #-28]	; 0xffffffe4
 c100e4c:	e15b20be 	ldrh	r2, [fp, #-14]
 c100e50:	e0812002 	add	r2, r1, r2
 c100e54:	e51b1020 	ldr	r1, [fp, #-32]	; 0xffffffe0
 c100e58:	e0812002 	add	r2, r1, r2
 c100e5c:	e5d22000 	ldrb	r2, [r2]
 c100e60:	e1e02002 	mvn	r2, r2
 c100e64:	e20210ff 	and	r1, r2, #255	; 0xff
 c100e68:	e59f205c 	ldr	r2, [pc, #92]	; c100ecc <lcd_putBmp+0x198>
 c100e6c:	e7c21003 	strb	r1, [r2, r3]

	for( ySrc=0, yDst=ysize-1; ySrc<ysize; ySrc++, yDst-- )
	{
		offsetDst = (yDst+y)*LCD_WIDTH/2+x/2;
		offsetSrc = ySrc*xsize/2;
		for( xSrc=0; xSrc<xsize/2; xSrc++ )
 c100e70:	e15b30be 	ldrh	r3, [fp, #-14]
 c100e74:	e2833001 	add	r3, r3, #1
 c100e78:	e14b30be 	strh	r3, [fp, #-14]
 c100e7c:	e15b32b6 	ldrh	r3, [fp, #-38]	; 0xffffffda
 c100e80:	e1a030a3 	lsr	r3, r3, #1
 c100e84:	e1a03803 	lsl	r3, r3, #16
 c100e88:	e1a03823 	lsr	r3, r3, #16
 c100e8c:	e15b20be 	ldrh	r2, [fp, #-14]
 c100e90:	e1520003 	cmp	r2, r3
 c100e94:	3affffe8 	bcc	c100e3c <lcd_putBmp+0x108>

	headerSize = bmp[10] + (bmp[11] << 8) + (bmp[12] << 16) + (bmp[13] << 24);

	bmp = bmp + headerSize; 

	for( ySrc=0, yDst=ysize-1; ySrc<ysize; ySrc++, yDst-- )
 c100e98:	e15b31b0 	ldrh	r3, [fp, #-16]
 c100e9c:	e2833001 	add	r3, r3, #1
 c100ea0:	e14b31b0 	strh	r3, [fp, #-16]
 c100ea4:	e15b31b2 	ldrh	r3, [fp, #-18]	; 0xffffffee
 c100ea8:	e2433001 	sub	r3, r3, #1
 c100eac:	e14b31b2 	strh	r3, [fp, #-18]	; 0xffffffee
 c100eb0:	e15b21b0 	ldrh	r2, [fp, #-16]
 c100eb4:	e1db30b4 	ldrh	r3, [fp, #4]
 c100eb8:	e1520003 	cmp	r2, r3
 c100ebc:	3affffc2 	bcc	c100dcc <lcd_putBmp+0x98>
		offsetDst = (yDst+y)*LCD_WIDTH/2+x/2;
		offsetSrc = ySrc*xsize/2;
		for( xSrc=0; xSrc<xsize/2; xSrc++ )
			lcd_buffer[offsetDst+xSrc] = ~bmp[offsetSrc+xSrc];
	}
}
 c100ec0:	e24bd00c 	sub	sp, fp, #12
 c100ec4:	e89d6800 	ldm	sp, {fp, sp, lr}
 c100ec8:	e12fff1e 	bx	lr
 c100ecc:	0c108d38 	.word	0x0c108d38

0c100ed0 <lcd_clearWindow>:
/*
** Borra una porción de la pantalla de tamaño (xsize, ysize) píxeles desde la posición (x,y)
** Esta función es una generalización de lcd_clear
*/
void lcd_clearWindow( uint16 x, uint16 y, uint16 xsize, uint16 ysize )
{
 c100ed0:	e1a0c00d 	mov	ip, sp
 c100ed4:	e92dd800 	push	{fp, ip, lr, pc}
 c100ed8:	e24cb004 	sub	fp, ip, #4
 c100edc:	e24dd010 	sub	sp, sp, #16
 c100ee0:	e14b01b6 	strh	r0, [fp, #-22]	; 0xffffffea
 c100ee4:	e14b11b8 	strh	r1, [fp, #-24]	; 0xffffffe8
 c100ee8:	e14b21ba 	strh	r2, [fp, #-26]	; 0xffffffe6
 c100eec:	e14b31bc 	strh	r3, [fp, #-28]	; 0xffffffe4
	uint16 xi, yi;

	for( yi=y; yi<y+ysize; yi++ )
 c100ef0:	e15b31b8 	ldrh	r3, [fp, #-24]	; 0xffffffe8
 c100ef4:	e14b31b0 	strh	r3, [fp, #-16]
 c100ef8:	ea000014 	b	c100f50 <lcd_clearWindow+0x80>
		for( xi=x; xi<x+xsize; xi++ )
 c100efc:	e15b31b6 	ldrh	r3, [fp, #-22]	; 0xffffffea
 c100f00:	e14b30be 	strh	r3, [fp, #-14]
 c100f04:	ea000008 	b	c100f2c <lcd_clearWindow+0x5c>
			lcd_putpixel( xi, yi, WHITE );
 c100f08:	e15b20be 	ldrh	r2, [fp, #-14]
 c100f0c:	e15b31b0 	ldrh	r3, [fp, #-16]
 c100f10:	e1a00002 	mov	r0, r2
 c100f14:	e1a01003 	mov	r1, r3
 c100f18:	e3a02000 	mov	r2, #0
 c100f1c:	eb000481 	bl	c102128 <lcd_putpixel>
void lcd_clearWindow( uint16 x, uint16 y, uint16 xsize, uint16 ysize )
{
	uint16 xi, yi;

	for( yi=y; yi<y+ysize; yi++ )
		for( xi=x; xi<x+xsize; xi++ )
 c100f20:	e15b30be 	ldrh	r3, [fp, #-14]
 c100f24:	e2833001 	add	r3, r3, #1
 c100f28:	e14b30be 	strh	r3, [fp, #-14]
 c100f2c:	e15b20be 	ldrh	r2, [fp, #-14]
 c100f30:	e15b11b6 	ldrh	r1, [fp, #-22]	; 0xffffffea
 c100f34:	e15b31ba 	ldrh	r3, [fp, #-26]	; 0xffffffe6
 c100f38:	e0813003 	add	r3, r1, r3
 c100f3c:	e1520003 	cmp	r2, r3
 c100f40:	bafffff0 	blt	c100f08 <lcd_clearWindow+0x38>
*/
void lcd_clearWindow( uint16 x, uint16 y, uint16 xsize, uint16 ysize )
{
	uint16 xi, yi;

	for( yi=y; yi<y+ysize; yi++ )
 c100f44:	e15b31b0 	ldrh	r3, [fp, #-16]
 c100f48:	e2833001 	add	r3, r3, #1
 c100f4c:	e14b31b0 	strh	r3, [fp, #-16]
 c100f50:	e15b21b0 	ldrh	r2, [fp, #-16]
 c100f54:	e15b11b8 	ldrh	r1, [fp, #-24]	; 0xffffffe8
 c100f58:	e15b31bc 	ldrh	r3, [fp, #-28]	; 0xffffffe4
 c100f5c:	e0813003 	add	r3, r1, r3
 c100f60:	e1520003 	cmp	r2, r3
 c100f64:	baffffe4 	blt	c100efc <lcd_clearWindow+0x2c>
		for( xi=x; xi<x+xsize; xi++ )
			lcd_putpixel( xi, yi, WHITE );
}
 c100f68:	e24bd00c 	sub	sp, fp, #12
 c100f6c:	e89d6800 	ldm	sp, {fp, sp, lr}
 c100f70:	e12fff1e 	bx	lr

0c100f74 <fifo_init>:

/*******************************************************************/

void fifo_init( void )
{
 c100f74:	e1a0c00d 	mov	ip, sp
 c100f78:	e92dd800 	push	{fp, ip, lr, pc}
 c100f7c:	e24cb004 	sub	fp, ip, #4
    fifo.head = 0;
 c100f80:	e59f3028 	ldr	r3, [pc, #40]	; c100fb0 <fifo_init+0x3c>
 c100f84:	e3a02000 	mov	r2, #0
 c100f88:	e1c320b0 	strh	r2, [r3]
    fifo.tail = 0;
 c100f8c:	e59f301c 	ldr	r3, [pc, #28]	; c100fb0 <fifo_init+0x3c>
 c100f90:	e3a02000 	mov	r2, #0
 c100f94:	e1c320b2 	strh	r2, [r3, #2]
    fifo.size = 0;
 c100f98:	e59f3010 	ldr	r3, [pc, #16]	; c100fb0 <fifo_init+0x3c>
 c100f9c:	e3a02000 	mov	r2, #0
 c100fa0:	e1c320b4 	strh	r2, [r3, #4]
}
 c100fa4:	e24bd00c 	sub	sp, fp, #12
 c100fa8:	e89d6800 	ldm	sp, {fp, sp, lr}
 c100fac:	e12fff1e 	bx	lr
 c100fb0:	0c112388 	.word	0x0c112388

0c100fb4 <fifo_enqueue>:

void fifo_enqueue( pf_t pf )
{
 c100fb4:	e1a0c00d 	mov	ip, sp
 c100fb8:	e92dd800 	push	{fp, ip, lr, pc}
 c100fbc:	e24cb004 	sub	fp, ip, #4
 c100fc0:	e24dd008 	sub	sp, sp, #8
 c100fc4:	e50b0010 	str	r0, [fp, #-16]
    fifo.buffer[fifo.tail++] = pf;
 c100fc8:	e59f309c 	ldr	r3, [pc, #156]	; c10106c <fifo_enqueue+0xb8>
 c100fcc:	e1d330b2 	ldrh	r3, [r3, #2]
 c100fd0:	e1a03803 	lsl	r3, r3, #16
 c100fd4:	e1a03823 	lsr	r3, r3, #16
 c100fd8:	e1a01003 	mov	r1, r3
 c100fdc:	e59f2088 	ldr	r2, [pc, #136]	; c10106c <fifo_enqueue+0xb8>
 c100fe0:	e2811002 	add	r1, r1, #2
 c100fe4:	e51b0010 	ldr	r0, [fp, #-16]
 c100fe8:	e7820101 	str	r0, [r2, r1, lsl #2]
 c100fec:	e2833001 	add	r3, r3, #1
 c100ff0:	e1a03803 	lsl	r3, r3, #16
 c100ff4:	e1a02823 	lsr	r2, r3, #16
 c100ff8:	e59f306c 	ldr	r3, [pc, #108]	; c10106c <fifo_enqueue+0xb8>
 c100ffc:	e1c320b2 	strh	r2, [r3, #2]
    if( fifo.tail == BUFFER_LEN )
 c101000:	e59f3064 	ldr	r3, [pc, #100]	; c10106c <fifo_enqueue+0xb8>
 c101004:	e1d330b2 	ldrh	r3, [r3, #2]
 c101008:	e1a03803 	lsl	r3, r3, #16
 c10100c:	e1a03823 	lsr	r3, r3, #16
 c101010:	e3530c02 	cmp	r3, #512	; 0x200
 c101014:	1a000002 	bne	c101024 <fifo_enqueue+0x70>
        fifo.tail = 0;
 c101018:	e59f304c 	ldr	r3, [pc, #76]	; c10106c <fifo_enqueue+0xb8>
 c10101c:	e3a02000 	mov	r2, #0
 c101020:	e1c320b2 	strh	r2, [r3, #2]
    INT_DISABLE;
 c101024:	e10f0000 	mrs	r0, CPSR
 c101028:	e52d0004 	push	{r0}		; (str r0, [sp, #-4]!)
 c10102c:	e38000c0 	orr	r0, r0, #192	; 0xc0
 c101030:	e121f000 	msr	CPSR_c, r0
    fifo.size++;
 c101034:	e59f3030 	ldr	r3, [pc, #48]	; c10106c <fifo_enqueue+0xb8>
 c101038:	e1d330b4 	ldrh	r3, [r3, #4]
 c10103c:	e1a03803 	lsl	r3, r3, #16
 c101040:	e1a03823 	lsr	r3, r3, #16
 c101044:	e2833001 	add	r3, r3, #1
 c101048:	e1a03803 	lsl	r3, r3, #16
 c10104c:	e1a02823 	lsr	r2, r3, #16
 c101050:	e59f3014 	ldr	r3, [pc, #20]	; c10106c <fifo_enqueue+0xb8>
 c101054:	e1c320b4 	strh	r2, [r3, #4]
    INT_ENABLE;
 c101058:	e49d0004 	pop	{r0}		; (ldr r0, [sp], #4)
 c10105c:	e121f000 	msr	CPSR_c, r0
}
 c101060:	e24bd00c 	sub	sp, fp, #12
 c101064:	e89d6800 	ldm	sp, {fp, sp, lr}
 c101068:	e12fff1e 	bx	lr
 c10106c:	0c112388 	.word	0x0c112388

0c101070 <fifo_dequeue>:

pf_t fifo_dequeue( void )
{
 c101070:	e1a0c00d 	mov	ip, sp
 c101074:	e92dd800 	push	{fp, ip, lr, pc}
 c101078:	e24cb004 	sub	fp, ip, #4
 c10107c:	e24dd008 	sub	sp, sp, #8
    pf_t pf;
    
    pf = fifo.buffer[fifo.head++];
 c101080:	e59f30a4 	ldr	r3, [pc, #164]	; c10112c <fifo_dequeue+0xbc>
 c101084:	e1d330b0 	ldrh	r3, [r3]
 c101088:	e1a03803 	lsl	r3, r3, #16
 c10108c:	e1a03823 	lsr	r3, r3, #16
 c101090:	e1a01003 	mov	r1, r3
 c101094:	e59f2090 	ldr	r2, [pc, #144]	; c10112c <fifo_dequeue+0xbc>
 c101098:	e2811002 	add	r1, r1, #2
 c10109c:	e7922101 	ldr	r2, [r2, r1, lsl #2]
 c1010a0:	e50b2010 	str	r2, [fp, #-16]
 c1010a4:	e2833001 	add	r3, r3, #1
 c1010a8:	e1a03803 	lsl	r3, r3, #16
 c1010ac:	e1a02823 	lsr	r2, r3, #16
 c1010b0:	e59f3074 	ldr	r3, [pc, #116]	; c10112c <fifo_dequeue+0xbc>
 c1010b4:	e1c320b0 	strh	r2, [r3]
    if( fifo.head == BUFFER_LEN )
 c1010b8:	e59f306c 	ldr	r3, [pc, #108]	; c10112c <fifo_dequeue+0xbc>
 c1010bc:	e1d330b0 	ldrh	r3, [r3]
 c1010c0:	e1a03803 	lsl	r3, r3, #16
 c1010c4:	e1a03823 	lsr	r3, r3, #16
 c1010c8:	e3530c02 	cmp	r3, #512	; 0x200
 c1010cc:	1a000002 	bne	c1010dc <fifo_dequeue+0x6c>
        fifo.head = 0;
 c1010d0:	e59f3054 	ldr	r3, [pc, #84]	; c10112c <fifo_dequeue+0xbc>
 c1010d4:	e3a02000 	mov	r2, #0
 c1010d8:	e1c320b0 	strh	r2, [r3]
    INT_DISABLE;
 c1010dc:	e10f0000 	mrs	r0, CPSR
 c1010e0:	e52d0004 	push	{r0}		; (str r0, [sp, #-4]!)
 c1010e4:	e38000c0 	orr	r0, r0, #192	; 0xc0
 c1010e8:	e121f000 	msr	CPSR_c, r0
    fifo.size--;
 c1010ec:	e59f3038 	ldr	r3, [pc, #56]	; c10112c <fifo_dequeue+0xbc>
 c1010f0:	e1d330b4 	ldrh	r3, [r3, #4]
 c1010f4:	e1a03803 	lsl	r3, r3, #16
 c1010f8:	e1a03823 	lsr	r3, r3, #16
 c1010fc:	e2433001 	sub	r3, r3, #1
 c101100:	e1a03803 	lsl	r3, r3, #16
 c101104:	e1a02823 	lsr	r2, r3, #16
 c101108:	e59f301c 	ldr	r3, [pc, #28]	; c10112c <fifo_dequeue+0xbc>
 c10110c:	e1c320b4 	strh	r2, [r3, #4]
    INT_ENABLE;
 c101110:	e49d0004 	pop	{r0}		; (ldr r0, [sp], #4)
 c101114:	e121f000 	msr	CPSR_c, r0
    return pf;
 c101118:	e51b3010 	ldr	r3, [fp, #-16]
}
 c10111c:	e1a00003 	mov	r0, r3
 c101120:	e24bd00c 	sub	sp, fp, #12
 c101124:	e89d6800 	ldm	sp, {fp, sp, lr}
 c101128:	e12fff1e 	bx	lr
 c10112c:	0c112388 	.word	0x0c112388

0c101130 <fifo_is_empty>:

boolean fifo_is_empty( void )
{
 c101130:	e1a0c00d 	mov	ip, sp
 c101134:	e92dd800 	push	{fp, ip, lr, pc}
 c101138:	e24cb004 	sub	fp, ip, #4
    return (fifo.size == 0);
 c10113c:	e59f3028 	ldr	r3, [pc, #40]	; c10116c <fifo_is_empty+0x3c>
 c101140:	e1d330b4 	ldrh	r3, [r3, #4]
 c101144:	e1a03803 	lsl	r3, r3, #16
 c101148:	e1a03823 	lsr	r3, r3, #16
 c10114c:	e3530000 	cmp	r3, #0
 c101150:	13a03000 	movne	r3, #0
 c101154:	03a03001 	moveq	r3, #1
 c101158:	e20330ff 	and	r3, r3, #255	; 0xff
}
 c10115c:	e1a00003 	mov	r0, r3
 c101160:	e24bd00c 	sub	sp, fp, #12
 c101164:	e89d6800 	ldm	sp, {fp, sp, lr}
 c101168:	e12fff1e 	bx	lr
 c10116c:	0c112388 	.word	0x0c112388

0c101170 <fifo_is_full>:

boolean fifo_is_full( void )
{
 c101170:	e1a0c00d 	mov	ip, sp
 c101174:	e92dd800 	push	{fp, ip, lr, pc}
 c101178:	e24cb004 	sub	fp, ip, #4
    return (fifo.size == BUFFER_LEN-1);
 c10117c:	e59f302c 	ldr	r3, [pc, #44]	; c1011b0 <fifo_is_full+0x40>
 c101180:	e1d330b4 	ldrh	r3, [r3, #4]
 c101184:	e1a03803 	lsl	r3, r3, #16
 c101188:	e1a02823 	lsr	r2, r3, #16
 c10118c:	e59f3020 	ldr	r3, [pc, #32]	; c1011b4 <fifo_is_full+0x44>
 c101190:	e1520003 	cmp	r2, r3
 c101194:	13a03000 	movne	r3, #0
 c101198:	03a03001 	moveq	r3, #1
 c10119c:	e20330ff 	and	r3, r3, #255	; 0xff
}
 c1011a0:	e1a00003 	mov	r0, r3
 c1011a4:	e24bd00c 	sub	sp, fp, #12
 c1011a8:	e89d6800 	ldm	sp, {fp, sp, lr}
 c1011ac:	e12fff1e 	bx	lr
 c1011b0:	0c112388 	.word	0x0c112388
 c1011b4:	000001ff 	.word	0x000001ff

0c1011b8 <iis_init>:
 c1011b8:	e1a0c00d 	mov	ip, sp
 c1011bc:	e92dd800 	push	{fp, ip, lr, pc}
 c1011c0:	e24cb004 	sub	fp, ip, #4
 c1011c4:	e24dd008 	sub	sp, sp, #8
 c1011c8:	e1a03000 	mov	r3, r0
 c1011cc:	e54b300d 	strb	r3, [fp, #-13]
 c1011d0:	e3a0000e 	mov	r0, #14
 c1011d4:	eb000917 	bl	c103638 <power_on>
 c1011d8:	e59f30f4 	ldr	r3, [pc, #244]	; c1012d4 <iis_init+0x11c>
 c1011dc:	e59f20f0 	ldr	r2, [pc, #240]	; c1012d4 <iis_init+0x11c>
 c1011e0:	e5922000 	ldr	r2, [r2]
 c1011e4:	e38220ff 	orr	r2, r2, #255	; 0xff
 c1011e8:	e5832000 	str	r2, [r3]
 c1011ec:	e59f30e4 	ldr	r3, [pc, #228]	; c1012d8 <iis_init+0x120>
 c1011f0:	e59f20e0 	ldr	r2, [pc, #224]	; c1012d8 <iis_init+0x120>
 c1011f4:	e5922000 	ldr	r2, [r2]
 c1011f8:	e3c2200f 	bic	r2, r2, #15
 c1011fc:	e382200b 	orr	r2, r2, #11
 c101200:	e5832000 	str	r2, [r3]
 c101204:	e59f30d0 	ldr	r3, [pc, #208]	; c1012dc <iis_init+0x124>
 c101208:	e59f20cc 	ldr	r2, [pc, #204]	; c1012dc <iis_init+0x124>
 c10120c:	e5922000 	ldr	r2, [r2]
 c101210:	e3c22803 	bic	r2, r2, #196608	; 0x30000
 c101214:	e3822802 	orr	r2, r2, #131072	; 0x20000
 c101218:	e5832000 	str	r2, [r3]
 c10121c:	e59f30bc 	ldr	r3, [pc, #188]	; c1012e0 <iis_init+0x128>
 c101220:	e59f20b8 	ldr	r2, [pc, #184]	; c1012e0 <iis_init+0x128>
 c101224:	e5922000 	ldr	r2, [r2]
 c101228:	e3822c01 	orr	r2, r2, #256	; 0x100
 c10122c:	e5832000 	str	r2, [r3]
 c101230:	e55b300d 	ldrb	r3, [fp, #-13]
 c101234:	e3530001 	cmp	r3, #1
 c101238:	0a000002 	beq	c101248 <iis_init+0x90>
 c10123c:	e3530002 	cmp	r3, #2
 c101240:	0a000010 	beq	c101288 <iis_init+0xd0>
 c101244:	ea00001c 	b	c1012bc <iis_init+0x104>
 c101248:	e59f3094 	ldr	r3, [pc, #148]	; c1012e4 <iis_init+0x12c>
 c10124c:	e3a02077 	mov	r2, #119	; 0x77
 c101250:	e5832000 	str	r2, [r3]
 c101254:	e59f308c 	ldr	r3, [pc, #140]	; c1012e8 <iis_init+0x130>
 c101258:	e3a02009 	mov	r2, #9
 c10125c:	e5832000 	str	r2, [r3]
 c101260:	e59f3084 	ldr	r3, [pc, #132]	; c1012ec <iis_init+0x134>
 c101264:	e3a02c0f 	mov	r2, #3840	; 0xf00
 c101268:	e5832000 	str	r2, [r3]
 c10126c:	e59f307c 	ldr	r3, [pc, #124]	; c1012f0 <iis_init+0x138>
 c101270:	e3a02032 	mov	r2, #50	; 0x32
 c101274:	e5832000 	str	r2, [r3]
 c101278:	eb001491 	bl	c1064c4 <bdma0_init>
 c10127c:	e59f0070 	ldr	r0, [pc, #112]	; c1012f4 <iis_init+0x13c>
 c101280:	eb0014a6 	bl	c106520 <bdma0_open>
 c101284:	ea00000c 	b	c1012bc <iis_init+0x104>
 c101288:	e59f3054 	ldr	r3, [pc, #84]	; c1012e4 <iis_init+0x12c>
 c10128c:	e3a02077 	mov	r2, #119	; 0x77
 c101290:	e5832000 	str	r2, [r3]
 c101294:	e59f304c 	ldr	r3, [pc, #76]	; c1012e8 <iis_init+0x130>
 c101298:	e3a020c9 	mov	r2, #201	; 0xc9
 c10129c:	e5832000 	str	r2, [r3]
 c1012a0:	e59f3044 	ldr	r3, [pc, #68]	; c1012ec <iis_init+0x134>
 c1012a4:	e3a02c03 	mov	r2, #768	; 0x300
 c1012a8:	e5832000 	str	r2, [r3]
 c1012ac:	e59f303c 	ldr	r3, [pc, #60]	; c1012f0 <iis_init+0x138>
 c1012b0:	e3a02003 	mov	r2, #3
 c1012b4:	e5832000 	str	r2, [r3]
 c1012b8:	e1a00000 	nop			; (mov r0, r0)
 c1012bc:	e59f3034 	ldr	r3, [pc, #52]	; c1012f8 <iis_init+0x140>
 c1012c0:	e55b200d 	ldrb	r2, [fp, #-13]
 c1012c4:	e5c32000 	strb	r2, [r3]
 c1012c8:	e24bd00c 	sub	sp, fp, #12
 c1012cc:	e89d6800 	ldm	sp, {fp, sp, lr}
 c1012d0:	e12fff1e 	bx	lr
 c1012d4:	01d20010 	.word	0x01d20010
 c1012d8:	01d20018 	.word	0x01d20018
 c1012dc:	01d20028 	.word	0x01d20028
 c1012e0:	01d20030 	.word	0x01d20030
 c1012e4:	01d18008 	.word	0x01d18008
 c1012e8:	01d18004 	.word	0x01d18004
 c1012ec:	01d1800c 	.word	0x01d1800c
 c1012f0:	01d18000 	.word	0x01d18000
 c1012f4:	0c1012fc 	.word	0x0c1012fc
 c1012f8:	0c11233a 	.word	0x0c11233a

0c1012fc <isr_bdma0>:
 c1012fc:	e52dc004 	push	{ip}		; (str ip, [sp, #-4]!)
 c101300:	e1a0c00d 	mov	ip, sp
 c101304:	e92dd80c 	push	{r2, r3, fp, ip, lr, pc}
 c101308:	e24cb004 	sub	fp, ip, #4
 c10130c:	e59f3028 	ldr	r3, [pc, #40]	; c10133c <isr_bdma0+0x40>
 c101310:	e59f2024 	ldr	r2, [pc, #36]	; c10133c <isr_bdma0+0x40>
 c101314:	e5922000 	ldr	r2, [r2]
 c101318:	e3c22001 	bic	r2, r2, #1
 c10131c:	e5832000 	str	r2, [r3]
 c101320:	e59f3018 	ldr	r3, [pc, #24]	; c101340 <isr_bdma0+0x44>
 c101324:	e3a02802 	mov	r2, #131072	; 0x20000
 c101328:	e5832000 	str	r2, [r3]
 c10132c:	e24bd014 	sub	sp, fp, #20
 c101330:	e89d680c 	ldm	sp, {r2, r3, fp, sp, lr}
 c101334:	e49dc004 	pop	{ip}		; (ldr ip, [sp], #4)
 c101338:	e25ef004 	subs	pc, lr, #4
 c10133c:	01d18000 	.word	0x01d18000
 c101340:	01e00024 	.word	0x01e00024

0c101344 <iis_putSample>:
 c101344:	e1a0c00d 	mov	ip, sp
 c101348:	e92dd800 	push	{fp, ip, lr, pc}
 c10134c:	e24cb004 	sub	fp, ip, #4
 c101350:	e24dd008 	sub	sp, sp, #8
 c101354:	e1a02000 	mov	r2, r0
 c101358:	e1a03001 	mov	r3, r1
 c10135c:	e14b20be 	strh	r2, [fp, #-14]
 c101360:	e14b31b0 	strh	r3, [fp, #-16]
 c101364:	e1a00000 	nop			; (mov r0, r0)
 c101368:	e59f3034 	ldr	r3, [pc, #52]	; c1013a4 <iis_putSample+0x60>
 c10136c:	e5933000 	ldr	r3, [r3]
 c101370:	e20330f0 	and	r3, r3, #240	; 0xf0
 c101374:	e1a03223 	lsr	r3, r3, #4
 c101378:	e3530006 	cmp	r3, #6
 c10137c:	8afffff9 	bhi	c101368 <iis_putSample+0x24>
 c101380:	e59f3020 	ldr	r3, [pc, #32]	; c1013a8 <iis_putSample+0x64>
 c101384:	e15b20fe 	ldrsh	r2, [fp, #-14]
 c101388:	e5832000 	str	r2, [r3]
 c10138c:	e59f3014 	ldr	r3, [pc, #20]	; c1013a8 <iis_putSample+0x64>
 c101390:	e15b21f0 	ldrsh	r2, [fp, #-16]
 c101394:	e5832000 	str	r2, [r3]
 c101398:	e24bd00c 	sub	sp, fp, #12
 c10139c:	e89d6800 	ldm	sp, {fp, sp, lr}
 c1013a0:	e12fff1e 	bx	lr
 c1013a4:	01d1800c 	.word	0x01d1800c
 c1013a8:	01d18010 	.word	0x01d18010

0c1013ac <iis_getSample>:
 c1013ac:	e1a0c00d 	mov	ip, sp
 c1013b0:	e92dd800 	push	{fp, ip, lr, pc}
 c1013b4:	e24cb004 	sub	fp, ip, #4
 c1013b8:	e24dd008 	sub	sp, sp, #8
 c1013bc:	e50b0010 	str	r0, [fp, #-16]
 c1013c0:	e50b1014 	str	r1, [fp, #-20]	; 0xffffffec
 c1013c4:	e1a00000 	nop			; (mov r0, r0)
 c1013c8:	e59f3048 	ldr	r3, [pc, #72]	; c101418 <iis_getSample+0x6c>
 c1013cc:	e5933000 	ldr	r3, [r3]
 c1013d0:	e203300f 	and	r3, r3, #15
 c1013d4:	e3530001 	cmp	r3, #1
 c1013d8:	9afffffa 	bls	c1013c8 <iis_getSample+0x1c>
 c1013dc:	e59f3038 	ldr	r3, [pc, #56]	; c10141c <iis_getSample+0x70>
 c1013e0:	e5933000 	ldr	r3, [r3]
 c1013e4:	e1a03803 	lsl	r3, r3, #16
 c1013e8:	e1a02823 	lsr	r2, r3, #16
 c1013ec:	e51b3010 	ldr	r3, [fp, #-16]
 c1013f0:	e1c320b0 	strh	r2, [r3]
 c1013f4:	e59f3020 	ldr	r3, [pc, #32]	; c10141c <iis_getSample+0x70>
 c1013f8:	e5933000 	ldr	r3, [r3]
 c1013fc:	e1a03803 	lsl	r3, r3, #16
 c101400:	e1a02823 	lsr	r2, r3, #16
 c101404:	e51b3014 	ldr	r3, [fp, #-20]	; 0xffffffec
 c101408:	e1c320b0 	strh	r2, [r3]
 c10140c:	e24bd00c 	sub	sp, fp, #12
 c101410:	e89d6800 	ldm	sp, {fp, sp, lr}
 c101414:	e12fff1e 	bx	lr
 c101418:	01d1800c 	.word	0x01d1800c
 c10141c:	01d18010 	.word	0x01d18010

0c101420 <iis_play>:
 c101420:	e1a0c00d 	mov	ip, sp
 c101424:	e92dd800 	push	{fp, ip, lr, pc}
 c101428:	e24cb004 	sub	fp, ip, #4
 c10142c:	e24dd018 	sub	sp, sp, #24
 c101430:	e50b0018 	str	r0, [fp, #-24]	; 0xffffffe8
 c101434:	e50b101c 	str	r1, [fp, #-28]	; 0xffffffe4
 c101438:	e1a03002 	mov	r3, r2
 c10143c:	e54b301d 	strb	r3, [fp, #-29]	; 0xffffffe3
 c101440:	e59f316c 	ldr	r3, [pc, #364]	; c1015b4 <iis_play+0x194>
 c101444:	e5d33000 	ldrb	r3, [r3]
 c101448:	e3530001 	cmp	r3, #1
 c10144c:	0a000002 	beq	c10145c <iis_play+0x3c>
 c101450:	e3530002 	cmp	r3, #2
 c101454:	0a000034 	beq	c10152c <iis_play+0x10c>
 c101458:	ea000052 	b	c1015a8 <iis_play+0x188>
 c10145c:	e1a00000 	nop			; (mov r0, r0)
 c101460:	e59f3150 	ldr	r3, [pc, #336]	; c1015b8 <iis_play+0x198>
 c101464:	e5933000 	ldr	r3, [r3]
 c101468:	e2033001 	and	r3, r3, #1
 c10146c:	e20330ff 	and	r3, r3, #255	; 0xff
 c101470:	e3530000 	cmp	r3, #0
 c101474:	1afffff9 	bne	c101460 <iis_play+0x40>
 c101478:	e59f313c 	ldr	r3, [pc, #316]	; c1015bc <iis_play+0x19c>
 c10147c:	e51b2018 	ldr	r2, [fp, #-24]	; 0xffffffe8
 c101480:	e3822205 	orr	r2, r2, #1342177280	; 0x50000000
 c101484:	e5832000 	str	r2, [r3]
 c101488:	e59f3130 	ldr	r3, [pc, #304]	; c1015c0 <iis_play+0x1a0>
 c10148c:	e59f2130 	ldr	r2, [pc, #304]	; c1015c4 <iis_play+0x1a4>
 c101490:	e5832000 	str	r2, [r3]
 c101494:	e3a0377e 	mov	r3, #33030144	; 0x1f80000
 c101498:	e3a02000 	mov	r2, #0
 c10149c:	e5832000 	str	r2, [r3]
 c1014a0:	e55b301d 	ldrb	r3, [fp, #-29]	; 0xffffffe3
 c1014a4:	e3530000 	cmp	r3, #0
 c1014a8:	0a000007 	beq	c1014cc <iis_play+0xac>
 c1014ac:	e59f2114 	ldr	r2, [pc, #276]	; c1015c8 <iis_play+0x1a8>
 c1014b0:	e51b301c 	ldr	r3, [fp, #-28]	; 0xffffffe4
 c1014b4:	e3c334ff 	bic	r3, r3, #-16777216	; 0xff000000
 c1014b8:	e3c3360f 	bic	r3, r3, #15728640	; 0xf00000
 c1014bc:	e3833311 	orr	r3, r3, #1140850688	; 0x44000000
 c1014c0:	e3833602 	orr	r3, r3, #2097152	; 0x200000
 c1014c4:	e5823000 	str	r3, [r2]
 c1014c8:	ea000006 	b	c1014e8 <iis_play+0xc8>
 c1014cc:	e59f20f4 	ldr	r2, [pc, #244]	; c1015c8 <iis_play+0x1a8>
 c1014d0:	e51b301c 	ldr	r3, [fp, #-28]	; 0xffffffe4
 c1014d4:	e3c334ff 	bic	r3, r3, #-16777216	; 0xff000000
 c1014d8:	e3c3360f 	bic	r3, r3, #15728640	; 0xf00000
 c1014dc:	e3833311 	orr	r3, r3, #1140850688	; 0x44000000
 c1014e0:	e3833503 	orr	r3, r3, #12582912	; 0xc00000
 c1014e4:	e5823000 	str	r3, [r2]
 c1014e8:	e59f30d8 	ldr	r3, [pc, #216]	; c1015c8 <iis_play+0x1a8>
 c1014ec:	e59f20d4 	ldr	r2, [pc, #212]	; c1015c8 <iis_play+0x1a8>
 c1014f0:	e5922000 	ldr	r2, [r2]
 c1014f4:	e3822601 	orr	r2, r2, #1048576	; 0x100000
 c1014f8:	e5832000 	str	r2, [r3]
 c1014fc:	e59f30c8 	ldr	r3, [pc, #200]	; c1015cc <iis_play+0x1ac>
 c101500:	e59f20c4 	ldr	r2, [pc, #196]	; c1015cc <iis_play+0x1ac>
 c101504:	e5922000 	ldr	r2, [r2]
 c101508:	e3c220c0 	bic	r2, r2, #192	; 0xc0
 c10150c:	e3822080 	orr	r2, r2, #128	; 0x80
 c101510:	e5832000 	str	r2, [r3]
 c101514:	e59f309c 	ldr	r3, [pc, #156]	; c1015b8 <iis_play+0x198>
 c101518:	e59f2098 	ldr	r2, [pc, #152]	; c1015b8 <iis_play+0x198>
 c10151c:	e5922000 	ldr	r2, [r2]
 c101520:	e3822001 	orr	r2, r2, #1
 c101524:	e5832000 	str	r2, [r3]
 c101528:	ea00001e 	b	c1015a8 <iis_play+0x188>
 c10152c:	e3a03000 	mov	r3, #0
 c101530:	e50b3010 	str	r3, [fp, #-16]
 c101534:	ea000016 	b	c101594 <iis_play+0x174>
 c101538:	e51b3010 	ldr	r3, [fp, #-16]
 c10153c:	e1a03083 	lsl	r3, r3, #1
 c101540:	e51b2018 	ldr	r2, [fp, #-24]	; 0xffffffe8
 c101544:	e0823003 	add	r3, r2, r3
 c101548:	e1d330b0 	ldrh	r3, [r3]
 c10154c:	e14b31b2 	strh	r3, [fp, #-18]	; 0xffffffee
 c101550:	e51b3010 	ldr	r3, [fp, #-16]
 c101554:	e2833001 	add	r3, r3, #1
 c101558:	e50b3010 	str	r3, [fp, #-16]
 c10155c:	e51b3010 	ldr	r3, [fp, #-16]
 c101560:	e1a03083 	lsl	r3, r3, #1
 c101564:	e51b2018 	ldr	r2, [fp, #-24]	; 0xffffffe8
 c101568:	e0823003 	add	r3, r2, r3
 c10156c:	e1d330b0 	ldrh	r3, [r3]
 c101570:	e14b31b4 	strh	r3, [fp, #-20]	; 0xffffffec
 c101574:	e51b3010 	ldr	r3, [fp, #-16]
 c101578:	e2833001 	add	r3, r3, #1
 c10157c:	e50b3010 	str	r3, [fp, #-16]
 c101580:	e15b21f2 	ldrsh	r2, [fp, #-18]	; 0xffffffee
 c101584:	e15b31f4 	ldrsh	r3, [fp, #-20]	; 0xffffffec
 c101588:	e1a00002 	mov	r0, r2
 c10158c:	e1a01003 	mov	r1, r3
 c101590:	ebffff6b 	bl	c101344 <iis_putSample>
 c101594:	e51b301c 	ldr	r3, [fp, #-28]	; 0xffffffe4
 c101598:	e1a020a3 	lsr	r2, r3, #1
 c10159c:	e51b3010 	ldr	r3, [fp, #-16]
 c1015a0:	e1520003 	cmp	r2, r3
 c1015a4:	8affffe3 	bhi	c101538 <iis_play+0x118>
 c1015a8:	e24bd00c 	sub	sp, fp, #12
 c1015ac:	e89d6800 	ldm	sp, {fp, sp, lr}
 c1015b0:	e12fff1e 	bx	lr
 c1015b4:	0c11233a 	.word	0x0c11233a
 c1015b8:	01d18000 	.word	0x01d18000
 c1015bc:	01f80004 	.word	0x01f80004
 c1015c0:	01f80008 	.word	0x01f80008
 c1015c4:	71d18010 	.word	0x71d18010
 c1015c8:	01f8000c 	.word	0x01f8000c
 c1015cc:	01d18004 	.word	0x01d18004

0c1015d0 <iis_rec>:
 c1015d0:	e1a0c00d 	mov	ip, sp
 c1015d4:	e92dd800 	push	{fp, ip, lr, pc}
 c1015d8:	e24cb004 	sub	fp, ip, #4
 c1015dc:	e24dd010 	sub	sp, sp, #16
 c1015e0:	e50b0018 	str	r0, [fp, #-24]	; 0xffffffe8
 c1015e4:	e50b101c 	str	r1, [fp, #-28]	; 0xffffffe4
 c1015e8:	e59f3140 	ldr	r3, [pc, #320]	; c101730 <iis_rec+0x160>
 c1015ec:	e5d33000 	ldrb	r3, [r3]
 c1015f0:	e3530001 	cmp	r3, #1
 c1015f4:	0a000002 	beq	c101604 <iis_rec+0x34>
 c1015f8:	e3530002 	cmp	r3, #2
 c1015fc:	0a000029 	beq	c1016a8 <iis_rec+0xd8>
 c101600:	ea000047 	b	c101724 <iis_rec+0x154>
 c101604:	e1a00000 	nop			; (mov r0, r0)
 c101608:	e59f3124 	ldr	r3, [pc, #292]	; c101734 <iis_rec+0x164>
 c10160c:	e5933000 	ldr	r3, [r3]
 c101610:	e2033001 	and	r3, r3, #1
 c101614:	e20330ff 	and	r3, r3, #255	; 0xff
 c101618:	e3530000 	cmp	r3, #0
 c10161c:	1afffff9 	bne	c101608 <iis_rec+0x38>
 c101620:	e59f3110 	ldr	r3, [pc, #272]	; c101738 <iis_rec+0x168>
 c101624:	e59f2110 	ldr	r2, [pc, #272]	; c10173c <iis_rec+0x16c>
 c101628:	e5832000 	str	r2, [r3]
 c10162c:	e59f310c 	ldr	r3, [pc, #268]	; c101740 <iis_rec+0x170>
 c101630:	e51b2018 	ldr	r2, [fp, #-24]	; 0xffffffe8
 c101634:	e3822209 	orr	r2, r2, #-1879048192	; 0x90000000
 c101638:	e5832000 	str	r2, [r3]
 c10163c:	e3a0377e 	mov	r3, #33030144	; 0x1f80000
 c101640:	e3a02000 	mov	r2, #0
 c101644:	e5832000 	str	r2, [r3]
 c101648:	e59f20f4 	ldr	r2, [pc, #244]	; c101744 <iis_rec+0x174>
 c10164c:	e51b301c 	ldr	r3, [fp, #-28]	; 0xffffffe4
 c101650:	e3c334ff 	bic	r3, r3, #-16777216	; 0xff000000
 c101654:	e3c3360f 	bic	r3, r3, #15728640	; 0xf00000
 c101658:	e3833311 	orr	r3, r3, #1140850688	; 0x44000000
 c10165c:	e3833503 	orr	r3, r3, #12582912	; 0xc00000
 c101660:	e5823000 	str	r3, [r2]
 c101664:	e59f30d8 	ldr	r3, [pc, #216]	; c101744 <iis_rec+0x174>
 c101668:	e59f20d4 	ldr	r2, [pc, #212]	; c101744 <iis_rec+0x174>
 c10166c:	e5922000 	ldr	r2, [r2]
 c101670:	e3822601 	orr	r2, r2, #1048576	; 0x100000
 c101674:	e5832000 	str	r2, [r3]
 c101678:	e59f30c8 	ldr	r3, [pc, #200]	; c101748 <iis_rec+0x178>
 c10167c:	e59f20c4 	ldr	r2, [pc, #196]	; c101748 <iis_rec+0x178>
 c101680:	e5922000 	ldr	r2, [r2]
 c101684:	e3c220c0 	bic	r2, r2, #192	; 0xc0
 c101688:	e3822040 	orr	r2, r2, #64	; 0x40
 c10168c:	e5832000 	str	r2, [r3]
 c101690:	e59f309c 	ldr	r3, [pc, #156]	; c101734 <iis_rec+0x164>
 c101694:	e59f2098 	ldr	r2, [pc, #152]	; c101734 <iis_rec+0x164>
 c101698:	e5922000 	ldr	r2, [r2]
 c10169c:	e3822001 	orr	r2, r2, #1
 c1016a0:	e5832000 	str	r2, [r3]
 c1016a4:	ea00001e 	b	c101724 <iis_rec+0x154>
 c1016a8:	e3a03000 	mov	r3, #0
 c1016ac:	e50b3010 	str	r3, [fp, #-16]
 c1016b0:	ea000016 	b	c101710 <iis_rec+0x140>
 c1016b4:	e24b2012 	sub	r2, fp, #18
 c1016b8:	e24b3014 	sub	r3, fp, #20
 c1016bc:	e1a00002 	mov	r0, r2
 c1016c0:	e1a01003 	mov	r1, r3
 c1016c4:	ebffff38 	bl	c1013ac <iis_getSample>
 c1016c8:	e51b3010 	ldr	r3, [fp, #-16]
 c1016cc:	e1a03083 	lsl	r3, r3, #1
 c1016d0:	e51b2018 	ldr	r2, [fp, #-24]	; 0xffffffe8
 c1016d4:	e0823003 	add	r3, r2, r3
 c1016d8:	e15b21b2 	ldrh	r2, [fp, #-18]	; 0xffffffee
 c1016dc:	e1c320b0 	strh	r2, [r3]
 c1016e0:	e51b3010 	ldr	r3, [fp, #-16]
 c1016e4:	e2833001 	add	r3, r3, #1
 c1016e8:	e50b3010 	str	r3, [fp, #-16]
 c1016ec:	e51b3010 	ldr	r3, [fp, #-16]
 c1016f0:	e1a03083 	lsl	r3, r3, #1
 c1016f4:	e51b2018 	ldr	r2, [fp, #-24]	; 0xffffffe8
 c1016f8:	e0823003 	add	r3, r2, r3
 c1016fc:	e15b21b4 	ldrh	r2, [fp, #-20]	; 0xffffffec
 c101700:	e1c320b0 	strh	r2, [r3]
 c101704:	e51b3010 	ldr	r3, [fp, #-16]
 c101708:	e2833001 	add	r3, r3, #1
 c10170c:	e50b3010 	str	r3, [fp, #-16]
 c101710:	e51b301c 	ldr	r3, [fp, #-28]	; 0xffffffe4
 c101714:	e1a020a3 	lsr	r2, r3, #1
 c101718:	e51b3010 	ldr	r3, [fp, #-16]
 c10171c:	e1520003 	cmp	r2, r3
 c101720:	8affffe3 	bhi	c1016b4 <iis_rec+0xe4>
 c101724:	e24bd00c 	sub	sp, fp, #12
 c101728:	e89d6800 	ldm	sp, {fp, sp, lr}
 c10172c:	e12fff1e 	bx	lr
 c101730:	0c11233a 	.word	0x0c11233a
 c101734:	01d18000 	.word	0x01d18000
 c101738:	01f80004 	.word	0x01f80004
 c10173c:	71d18010 	.word	0x71d18010
 c101740:	01f80008 	.word	0x01f80008
 c101744:	01f8000c 	.word	0x01f8000c
 c101748:	01d18004 	.word	0x01d18004

0c10174c <iis_pause>:
 c10174c:	e1a0c00d 	mov	ip, sp
 c101750:	e92dd800 	push	{fp, ip, lr, pc}
 c101754:	e24cb004 	sub	fp, ip, #4
 c101758:	e59f3018 	ldr	r3, [pc, #24]	; c101778 <iis_pause+0x2c>
 c10175c:	e59f2014 	ldr	r2, [pc, #20]	; c101778 <iis_pause+0x2c>
 c101760:	e5922000 	ldr	r2, [r2]
 c101764:	e3c22001 	bic	r2, r2, #1
 c101768:	e5832000 	str	r2, [r3]
 c10176c:	e24bd00c 	sub	sp, fp, #12
 c101770:	e89d6800 	ldm	sp, {fp, sp, lr}
 c101774:	e12fff1e 	bx	lr
 c101778:	01d18000 	.word	0x01d18000

0c10177c <iis_continue>:
 c10177c:	e1a0c00d 	mov	ip, sp
 c101780:	e92dd800 	push	{fp, ip, lr, pc}
 c101784:	e24cb004 	sub	fp, ip, #4
 c101788:	e59f3018 	ldr	r3, [pc, #24]	; c1017a8 <iis_continue+0x2c>
 c10178c:	e59f2014 	ldr	r2, [pc, #20]	; c1017a8 <iis_continue+0x2c>
 c101790:	e5922000 	ldr	r2, [r2]
 c101794:	e3822001 	orr	r2, r2, #1
 c101798:	e5832000 	str	r2, [r3]
 c10179c:	e24bd00c 	sub	sp, fp, #12
 c1017a0:	e89d6800 	ldm	sp, {fp, sp, lr}
 c1017a4:	e12fff1e 	bx	lr
 c1017a8:	01d18000 	.word	0x01d18000

0c1017ac <iis_status>:
 c1017ac:	e1a0c00d 	mov	ip, sp
 c1017b0:	e92dd800 	push	{fp, ip, lr, pc}
 c1017b4:	e24cb004 	sub	fp, ip, #4
 c1017b8:	e59f301c 	ldr	r3, [pc, #28]	; c1017dc <iis_status+0x30>
 c1017bc:	e5933000 	ldr	r3, [r3]
 c1017c0:	e20330ff 	and	r3, r3, #255	; 0xff
 c1017c4:	e2033001 	and	r3, r3, #1
 c1017c8:	e20330ff 	and	r3, r3, #255	; 0xff
 c1017cc:	e1a00003 	mov	r0, r3
 c1017d0:	e24bd00c 	sub	sp, fp, #12
 c1017d4:	e89d6800 	ldm	sp, {fp, sp, lr}
 c1017d8:	e12fff1e 	bx	lr
 c1017dc:	01d18000 	.word	0x01d18000

0c1017e0 <iis_playWawFile>:
 c1017e0:	e1a0c00d 	mov	ip, sp
 c1017e4:	e92dd800 	push	{fp, ip, lr, pc}
 c1017e8:	e24cb004 	sub	fp, ip, #4
 c1017ec:	e24dd010 	sub	sp, sp, #16
 c1017f0:	e50b0018 	str	r0, [fp, #-24]	; 0xffffffe8
 c1017f4:	e1a03001 	mov	r3, r1
 c1017f8:	e54b3019 	strb	r3, [fp, #-25]	; 0xffffffe7
 c1017fc:	e51b3018 	ldr	r3, [fp, #-24]	; 0xffffffe8
 c101800:	e50b3010 	str	r3, [fp, #-16]
 c101804:	ea000002 	b	c101814 <iis_playWawFile+0x34>
 c101808:	e51b3010 	ldr	r3, [fp, #-16]
 c10180c:	e2833001 	add	r3, r3, #1
 c101810:	e50b3010 	str	r3, [fp, #-16]
 c101814:	e51b3010 	ldr	r3, [fp, #-16]
 c101818:	e5d33000 	ldrb	r3, [r3]
 c10181c:	e3530064 	cmp	r3, #100	; 0x64
 c101820:	1afffff8 	bne	c101808 <iis_playWawFile+0x28>
 c101824:	e51b3010 	ldr	r3, [fp, #-16]
 c101828:	e2833001 	add	r3, r3, #1
 c10182c:	e5d33000 	ldrb	r3, [r3]
 c101830:	e3530061 	cmp	r3, #97	; 0x61
 c101834:	1afffff3 	bne	c101808 <iis_playWawFile+0x28>
 c101838:	e51b3010 	ldr	r3, [fp, #-16]
 c10183c:	e2833002 	add	r3, r3, #2
 c101840:	e5d33000 	ldrb	r3, [r3]
 c101844:	e3530074 	cmp	r3, #116	; 0x74
 c101848:	1affffee 	bne	c101808 <iis_playWawFile+0x28>
 c10184c:	e51b3010 	ldr	r3, [fp, #-16]
 c101850:	e2833003 	add	r3, r3, #3
 c101854:	e5d33000 	ldrb	r3, [r3]
 c101858:	e3530061 	cmp	r3, #97	; 0x61
 c10185c:	1affffe9 	bne	c101808 <iis_playWawFile+0x28>
 c101860:	e51b3010 	ldr	r3, [fp, #-16]
 c101864:	e2833004 	add	r3, r3, #4
 c101868:	e50b3010 	str	r3, [fp, #-16]
 c10186c:	e51b3010 	ldr	r3, [fp, #-16]
 c101870:	e5d33000 	ldrb	r3, [r3]
 c101874:	e1a02003 	mov	r2, r3
 c101878:	e51b3010 	ldr	r3, [fp, #-16]
 c10187c:	e2833001 	add	r3, r3, #1
 c101880:	e5d33000 	ldrb	r3, [r3]
 c101884:	e1a03403 	lsl	r3, r3, #8
 c101888:	e0822003 	add	r2, r2, r3
 c10188c:	e51b3010 	ldr	r3, [fp, #-16]
 c101890:	e2833002 	add	r3, r3, #2
 c101894:	e5d33000 	ldrb	r3, [r3]
 c101898:	e1a03803 	lsl	r3, r3, #16
 c10189c:	e0822003 	add	r2, r2, r3
 c1018a0:	e51b3010 	ldr	r3, [fp, #-16]
 c1018a4:	e2833003 	add	r3, r3, #3
 c1018a8:	e5d33000 	ldrb	r3, [r3]
 c1018ac:	e1a03c03 	lsl	r3, r3, #24
 c1018b0:	e0823003 	add	r3, r2, r3
 c1018b4:	e50b3014 	str	r3, [fp, #-20]	; 0xffffffec
 c1018b8:	e51b3010 	ldr	r3, [fp, #-16]
 c1018bc:	e2833004 	add	r3, r3, #4
 c1018c0:	e50b3010 	str	r3, [fp, #-16]
 c1018c4:	e51b2010 	ldr	r2, [fp, #-16]
 c1018c8:	e55b3019 	ldrb	r3, [fp, #-25]	; 0xffffffe7
 c1018cc:	e1a00002 	mov	r0, r2
 c1018d0:	e51b1014 	ldr	r1, [fp, #-20]	; 0xffffffec
 c1018d4:	e1a02003 	mov	r2, r3
 c1018d8:	ebfffed0 	bl	c101420 <iis_play>
 c1018dc:	e24bd00c 	sub	sp, fp, #12
 c1018e0:	e89d6800 	ldm	sp, {fp, sp, lr}
 c1018e4:	e12fff1e 	bx	lr

0c1018e8 <keypad_scan>:
 c1018e8:	e1a0c00d 	mov	ip, sp
 c1018ec:	e92dd800 	push	{fp, ip, lr, pc}
 c1018f0:	e24cb004 	sub	fp, ip, #4
 c1018f4:	e24dd008 	sub	sp, sp, #8
 c1018f8:	e59f31fc 	ldr	r3, [pc, #508]	; c101afc <keypad_scan+0x214>
 c1018fc:	e5d33000 	ldrb	r3, [r3]
 c101900:	e54b300d 	strb	r3, [fp, #-13]
 c101904:	e55b300d 	ldrb	r3, [fp, #-13]
 c101908:	e203300f 	and	r3, r3, #15
 c10190c:	e353000f 	cmp	r3, #15
 c101910:	0a000017 	beq	c101974 <keypad_scan+0x8c>
 c101914:	e55b300d 	ldrb	r3, [fp, #-13]
 c101918:	e2033008 	and	r3, r3, #8
 c10191c:	e3530000 	cmp	r3, #0
 c101920:	1a000001 	bne	c10192c <keypad_scan+0x44>
 c101924:	e3a03000 	mov	r3, #0
 c101928:	ea00006f 	b	c101aec <keypad_scan+0x204>
 c10192c:	e55b300d 	ldrb	r3, [fp, #-13]
 c101930:	e2033004 	and	r3, r3, #4
 c101934:	e3530000 	cmp	r3, #0
 c101938:	1a000001 	bne	c101944 <keypad_scan+0x5c>
 c10193c:	e3a03001 	mov	r3, #1
 c101940:	ea000069 	b	c101aec <keypad_scan+0x204>
 c101944:	e55b300d 	ldrb	r3, [fp, #-13]
 c101948:	e2033002 	and	r3, r3, #2
 c10194c:	e3530000 	cmp	r3, #0
 c101950:	1a000001 	bne	c10195c <keypad_scan+0x74>
 c101954:	e3a03002 	mov	r3, #2
 c101958:	ea000063 	b	c101aec <keypad_scan+0x204>
 c10195c:	e55b300d 	ldrb	r3, [fp, #-13]
 c101960:	e2033001 	and	r3, r3, #1
 c101964:	e3530000 	cmp	r3, #0
 c101968:	1a000001 	bne	c101974 <keypad_scan+0x8c>
 c10196c:	e3a03003 	mov	r3, #3
 c101970:	ea00005d 	b	c101aec <keypad_scan+0x204>
 c101974:	e59f3184 	ldr	r3, [pc, #388]	; c101b00 <keypad_scan+0x218>
 c101978:	e5d33000 	ldrb	r3, [r3]
 c10197c:	e54b300d 	strb	r3, [fp, #-13]
 c101980:	e55b300d 	ldrb	r3, [fp, #-13]
 c101984:	e203300f 	and	r3, r3, #15
 c101988:	e353000f 	cmp	r3, #15
 c10198c:	0a000017 	beq	c1019f0 <keypad_scan+0x108>
 c101990:	e55b300d 	ldrb	r3, [fp, #-13]
 c101994:	e2033008 	and	r3, r3, #8
 c101998:	e3530000 	cmp	r3, #0
 c10199c:	1a000001 	bne	c1019a8 <keypad_scan+0xc0>
 c1019a0:	e3a03004 	mov	r3, #4
 c1019a4:	ea000050 	b	c101aec <keypad_scan+0x204>
 c1019a8:	e55b300d 	ldrb	r3, [fp, #-13]
 c1019ac:	e2033004 	and	r3, r3, #4
 c1019b0:	e3530000 	cmp	r3, #0
 c1019b4:	1a000001 	bne	c1019c0 <keypad_scan+0xd8>
 c1019b8:	e3a03005 	mov	r3, #5
 c1019bc:	ea00004a 	b	c101aec <keypad_scan+0x204>
 c1019c0:	e55b300d 	ldrb	r3, [fp, #-13]
 c1019c4:	e2033002 	and	r3, r3, #2
 c1019c8:	e3530000 	cmp	r3, #0
 c1019cc:	1a000001 	bne	c1019d8 <keypad_scan+0xf0>
 c1019d0:	e3a03006 	mov	r3, #6
 c1019d4:	ea000044 	b	c101aec <keypad_scan+0x204>
 c1019d8:	e55b300d 	ldrb	r3, [fp, #-13]
 c1019dc:	e2033001 	and	r3, r3, #1
 c1019e0:	e3530000 	cmp	r3, #0
 c1019e4:	1a000001 	bne	c1019f0 <keypad_scan+0x108>
 c1019e8:	e3a03007 	mov	r3, #7
 c1019ec:	ea00003e 	b	c101aec <keypad_scan+0x204>
 c1019f0:	e59f310c 	ldr	r3, [pc, #268]	; c101b04 <keypad_scan+0x21c>
 c1019f4:	e5d33000 	ldrb	r3, [r3]
 c1019f8:	e54b300d 	strb	r3, [fp, #-13]
 c1019fc:	e55b300d 	ldrb	r3, [fp, #-13]
 c101a00:	e203300f 	and	r3, r3, #15
 c101a04:	e353000f 	cmp	r3, #15
 c101a08:	0a000017 	beq	c101a6c <keypad_scan+0x184>
 c101a0c:	e55b300d 	ldrb	r3, [fp, #-13]
 c101a10:	e2033008 	and	r3, r3, #8
 c101a14:	e3530000 	cmp	r3, #0
 c101a18:	1a000001 	bne	c101a24 <keypad_scan+0x13c>
 c101a1c:	e3a03008 	mov	r3, #8
 c101a20:	ea000031 	b	c101aec <keypad_scan+0x204>
 c101a24:	e55b300d 	ldrb	r3, [fp, #-13]
 c101a28:	e2033004 	and	r3, r3, #4
 c101a2c:	e3530000 	cmp	r3, #0
 c101a30:	1a000001 	bne	c101a3c <keypad_scan+0x154>
 c101a34:	e3a03009 	mov	r3, #9
 c101a38:	ea00002b 	b	c101aec <keypad_scan+0x204>
 c101a3c:	e55b300d 	ldrb	r3, [fp, #-13]
 c101a40:	e2033002 	and	r3, r3, #2
 c101a44:	e3530000 	cmp	r3, #0
 c101a48:	1a000001 	bne	c101a54 <keypad_scan+0x16c>
 c101a4c:	e3a0300a 	mov	r3, #10
 c101a50:	ea000025 	b	c101aec <keypad_scan+0x204>
 c101a54:	e55b300d 	ldrb	r3, [fp, #-13]
 c101a58:	e2033001 	and	r3, r3, #1
 c101a5c:	e3530000 	cmp	r3, #0
 c101a60:	1a000001 	bne	c101a6c <keypad_scan+0x184>
 c101a64:	e3a0300b 	mov	r3, #11
 c101a68:	ea00001f 	b	c101aec <keypad_scan+0x204>
 c101a6c:	e59f3094 	ldr	r3, [pc, #148]	; c101b08 <keypad_scan+0x220>
 c101a70:	e5d33000 	ldrb	r3, [r3]
 c101a74:	e54b300d 	strb	r3, [fp, #-13]
 c101a78:	e55b300d 	ldrb	r3, [fp, #-13]
 c101a7c:	e203300f 	and	r3, r3, #15
 c101a80:	e353000f 	cmp	r3, #15
 c101a84:	0a000017 	beq	c101ae8 <keypad_scan+0x200>
 c101a88:	e55b300d 	ldrb	r3, [fp, #-13]
 c101a8c:	e2033008 	and	r3, r3, #8
 c101a90:	e3530000 	cmp	r3, #0
 c101a94:	1a000001 	bne	c101aa0 <keypad_scan+0x1b8>
 c101a98:	e3a0300c 	mov	r3, #12
 c101a9c:	ea000012 	b	c101aec <keypad_scan+0x204>
 c101aa0:	e55b300d 	ldrb	r3, [fp, #-13]
 c101aa4:	e2033004 	and	r3, r3, #4
 c101aa8:	e3530000 	cmp	r3, #0
 c101aac:	1a000001 	bne	c101ab8 <keypad_scan+0x1d0>
 c101ab0:	e3a0300d 	mov	r3, #13
 c101ab4:	ea00000c 	b	c101aec <keypad_scan+0x204>
 c101ab8:	e55b300d 	ldrb	r3, [fp, #-13]
 c101abc:	e2033002 	and	r3, r3, #2
 c101ac0:	e3530000 	cmp	r3, #0
 c101ac4:	1a000001 	bne	c101ad0 <keypad_scan+0x1e8>
 c101ac8:	e3a0300e 	mov	r3, #14
 c101acc:	ea000006 	b	c101aec <keypad_scan+0x204>
 c101ad0:	e55b300d 	ldrb	r3, [fp, #-13]
 c101ad4:	e2033001 	and	r3, r3, #1
 c101ad8:	e3530000 	cmp	r3, #0
 c101adc:	1a000001 	bne	c101ae8 <keypad_scan+0x200>
 c101ae0:	e3a0300f 	mov	r3, #15
 c101ae4:	ea000000 	b	c101aec <keypad_scan+0x204>
 c101ae8:	e3a030ff 	mov	r3, #255	; 0xff
 c101aec:	e1a00003 	mov	r0, r3
 c101af0:	e24bd00c 	sub	sp, fp, #12
 c101af4:	e89d6800 	ldm	sp, {fp, sp, lr}
 c101af8:	e12fff1e 	bx	lr
 c101afc:	0600001c 	.word	0x0600001c
 c101b00:	0600001a 	.word	0x0600001a
 c101b04:	06000016 	.word	0x06000016
 c101b08:	0600000e 	.word	0x0600000e

0c101b0c <keypad_pressed>:
 c101b0c:	e1a0c00d 	mov	ip, sp
 c101b10:	e92dd800 	push	{fp, ip, lr, pc}
 c101b14:	e24cb004 	sub	fp, ip, #4
 c101b18:	e59f3024 	ldr	r3, [pc, #36]	; c101b44 <keypad_pressed+0x38>
 c101b1c:	e5933000 	ldr	r3, [r3]
 c101b20:	e2033002 	and	r3, r3, #2
 c101b24:	e3530000 	cmp	r3, #0
 c101b28:	13a03000 	movne	r3, #0
 c101b2c:	03a03001 	moveq	r3, #1
 c101b30:	e20330ff 	and	r3, r3, #255	; 0xff
 c101b34:	e1a00003 	mov	r0, r3
 c101b38:	e24bd00c 	sub	sp, fp, #12
 c101b3c:	e89d6800 	ldm	sp, {fp, sp, lr}
 c101b40:	e12fff1e 	bx	lr
 c101b44:	01d20044 	.word	0x01d20044

0c101b48 <keypad_getchartime>:
 c101b48:	e1a0c00d 	mov	ip, sp
 c101b4c:	e92dd800 	push	{fp, ip, lr, pc}
 c101b50:	e24cb004 	sub	fp, ip, #4
 c101b54:	e24dd010 	sub	sp, sp, #16
 c101b58:	e50b0018 	str	r0, [fp, #-24]	; 0xffffffe8
 c101b5c:	e1a00000 	nop			; (mov r0, r0)
 c101b60:	e59f3080 	ldr	r3, [pc, #128]	; c101be8 <keypad_getchartime+0xa0>
 c101b64:	e5933000 	ldr	r3, [r3]
 c101b68:	e2033002 	and	r3, r3, #2
 c101b6c:	e3530000 	cmp	r3, #0
 c101b70:	1afffffa 	bne	c101b60 <keypad_getchartime+0x18>
 c101b74:	eb000e94 	bl	c1055cc <timer3_start>
 c101b78:	e3a0001e 	mov	r0, #30
 c101b7c:	eb000e27 	bl	c105420 <sw_delay_ms>
 c101b80:	ebffff58 	bl	c1018e8 <keypad_scan>
 c101b84:	e1a03000 	mov	r3, r0
 c101b88:	e54b300d 	strb	r3, [fp, #-13]
 c101b8c:	e1a00000 	nop			; (mov r0, r0)
 c101b90:	e59f3050 	ldr	r3, [pc, #80]	; c101be8 <keypad_getchartime+0xa0>
 c101b94:	e5933000 	ldr	r3, [r3]
 c101b98:	e2033002 	and	r3, r3, #2
 c101b9c:	e3530000 	cmp	r3, #0
 c101ba0:	0afffffa 	beq	c101b90 <keypad_getchartime+0x48>
 c101ba4:	eb000ebf 	bl	c1056a8 <timer3_stop>
 c101ba8:	e1a03000 	mov	r3, r0
 c101bac:	e1a02003 	mov	r2, r3
 c101bb0:	e59f3034 	ldr	r3, [pc, #52]	; c101bec <keypad_getchartime+0xa4>
 c101bb4:	e0831392 	umull	r1, r3, r2, r3
 c101bb8:	e1a031a3 	lsr	r3, r3, #3
 c101bbc:	e1a03803 	lsl	r3, r3, #16
 c101bc0:	e1a02823 	lsr	r2, r3, #16
 c101bc4:	e51b3018 	ldr	r3, [fp, #-24]	; 0xffffffe8
 c101bc8:	e1c320b0 	strh	r2, [r3]
 c101bcc:	e3a00064 	mov	r0, #100	; 0x64
 c101bd0:	eb000e12 	bl	c105420 <sw_delay_ms>
 c101bd4:	e55b300d 	ldrb	r3, [fp, #-13]
 c101bd8:	e1a00003 	mov	r0, r3
 c101bdc:	e24bd00c 	sub	sp, fp, #12
 c101be0:	e89d6800 	ldm	sp, {fp, sp, lr}
 c101be4:	e12fff1e 	bx	lr
 c101be8:	01d20044 	.word	0x01d20044
 c101bec:	cccccccd 	.word	0xcccccccd

0c101bf0 <keypad_timeout_getchar>:
 c101bf0:	e1a0c00d 	mov	ip, sp
 c101bf4:	e92dd800 	push	{fp, ip, lr, pc}
 c101bf8:	e24cb004 	sub	fp, ip, #4
 c101bfc:	e24dd010 	sub	sp, sp, #16
 c101c00:	e1a03000 	mov	r3, r0
 c101c04:	e14b31b6 	strh	r3, [fp, #-22]	; 0xffffffea
 c101c08:	e15b31b6 	ldrh	r3, [fp, #-22]	; 0xffffffea
 c101c0c:	e1a02003 	mov	r2, r3
 c101c10:	e1a02102 	lsl	r2, r2, #2
 c101c14:	e0823003 	add	r3, r2, r3
 c101c18:	e1a03083 	lsl	r3, r3, #1
 c101c1c:	e1a03803 	lsl	r3, r3, #16
 c101c20:	e1a03823 	lsr	r3, r3, #16
 c101c24:	e1a00003 	mov	r0, r3
 c101c28:	eb000eb3 	bl	c1056fc <timer3_start_timeout>
 c101c2c:	e1a00000 	nop			; (mov r0, r0)
 c101c30:	e59f30a4 	ldr	r3, [pc, #164]	; c101cdc <keypad_timeout_getchar+0xec>
 c101c34:	e5933000 	ldr	r3, [r3]
 c101c38:	e2033002 	and	r3, r3, #2
 c101c3c:	e3530000 	cmp	r3, #0
 c101c40:	0a000003 	beq	c101c54 <keypad_timeout_getchar+0x64>
 c101c44:	eb000ee5 	bl	c1057e0 <timer3_timeout>
 c101c48:	e1a03000 	mov	r3, r0
 c101c4c:	e3530000 	cmp	r3, #0
 c101c50:	0afffff6 	beq	c101c30 <keypad_timeout_getchar+0x40>
 c101c54:	eb000ee1 	bl	c1057e0 <timer3_timeout>
 c101c58:	e1a03000 	mov	r3, r0
 c101c5c:	e3530000 	cmp	r3, #0
 c101c60:	0a000001 	beq	c101c6c <keypad_timeout_getchar+0x7c>
 c101c64:	e3a030fe 	mov	r3, #254	; 0xfe
 c101c68:	ea000017 	b	c101ccc <keypad_timeout_getchar+0xdc>
 c101c6c:	e3a0001e 	mov	r0, #30
 c101c70:	eb000dea 	bl	c105420 <sw_delay_ms>
 c101c74:	ebffff1b 	bl	c1018e8 <keypad_scan>
 c101c78:	e1a03000 	mov	r3, r0
 c101c7c:	e54b300d 	strb	r3, [fp, #-13]
 c101c80:	e1a00000 	nop			; (mov r0, r0)
 c101c84:	e59f3050 	ldr	r3, [pc, #80]	; c101cdc <keypad_timeout_getchar+0xec>
 c101c88:	e5933000 	ldr	r3, [r3]
 c101c8c:	e2033002 	and	r3, r3, #2
 c101c90:	e3530000 	cmp	r3, #0
 c101c94:	1a000003 	bne	c101ca8 <keypad_timeout_getchar+0xb8>
 c101c98:	eb000ed0 	bl	c1057e0 <timer3_timeout>
 c101c9c:	e1a03000 	mov	r3, r0
 c101ca0:	e3530000 	cmp	r3, #0
 c101ca4:	0afffff6 	beq	c101c84 <keypad_timeout_getchar+0x94>
 c101ca8:	eb000ecc 	bl	c1057e0 <timer3_timeout>
 c101cac:	e1a03000 	mov	r3, r0
 c101cb0:	e3530000 	cmp	r3, #0
 c101cb4:	0a000001 	beq	c101cc0 <keypad_timeout_getchar+0xd0>
 c101cb8:	e3a030fe 	mov	r3, #254	; 0xfe
 c101cbc:	ea000002 	b	c101ccc <keypad_timeout_getchar+0xdc>
 c101cc0:	e3a00064 	mov	r0, #100	; 0x64
 c101cc4:	eb000dd5 	bl	c105420 <sw_delay_ms>
 c101cc8:	e55b300d 	ldrb	r3, [fp, #-13]
 c101ccc:	e1a00003 	mov	r0, r3
 c101cd0:	e24bd00c 	sub	sp, fp, #12
 c101cd4:	e89d6800 	ldm	sp, {fp, sp, lr}
 c101cd8:	e12fff1e 	bx	lr
 c101cdc:	01d20044 	.word	0x01d20044

0c101ce0 <keypad_open>:
 c101ce0:	e1a0c00d 	mov	ip, sp
 c101ce4:	e92dd800 	push	{fp, ip, lr, pc}
 c101ce8:	e24cb004 	sub	fp, ip, #4
 c101cec:	e24dd008 	sub	sp, sp, #8
 c101cf0:	e50b0010 	str	r0, [fp, #-16]
 c101cf4:	e59f3030 	ldr	r3, [pc, #48]	; c101d2c <keypad_open+0x4c>
 c101cf8:	e51b2010 	ldr	r2, [fp, #-16]
 c101cfc:	e5832000 	str	r2, [r3]
 c101d00:	e59f3028 	ldr	r3, [pc, #40]	; c101d30 <keypad_open+0x50>
 c101d04:	e3a02401 	mov	r2, #16777216	; 0x1000000
 c101d08:	e5832000 	str	r2, [r3]
 c101d0c:	e59f3020 	ldr	r3, [pc, #32]	; c101d34 <keypad_open+0x54>
 c101d10:	e59f201c 	ldr	r2, [pc, #28]	; c101d34 <keypad_open+0x54>
 c101d14:	e5922000 	ldr	r2, [r2]
 c101d18:	e3c22405 	bic	r2, r2, #83886080	; 0x5000000
 c101d1c:	e5832000 	str	r2, [r3]
 c101d20:	e24bd00c 	sub	sp, fp, #12
 c101d24:	e89d6800 	ldm	sp, {fp, sp, lr}
 c101d28:	e12fff1e 	bx	lr
 c101d2c:	0c7fff80 	.word	0x0c7fff80
 c101d30:	01e00024 	.word	0x01e00024
 c101d34:	01e0000c 	.word	0x01e0000c

0c101d38 <keypad_close>:
 c101d38:	e1a0c00d 	mov	ip, sp
 c101d3c:	e92dd800 	push	{fp, ip, lr, pc}
 c101d40:	e24cb004 	sub	fp, ip, #4
 c101d44:	e59f3024 	ldr	r3, [pc, #36]	; c101d70 <keypad_close+0x38>
 c101d48:	e59f2020 	ldr	r2, [pc, #32]	; c101d70 <keypad_close+0x38>
 c101d4c:	e5922000 	ldr	r2, [r2]
 c101d50:	e3822401 	orr	r2, r2, #16777216	; 0x1000000
 c101d54:	e5832000 	str	r2, [r3]
 c101d58:	e59f3014 	ldr	r3, [pc, #20]	; c101d74 <keypad_close+0x3c>
 c101d5c:	e59f2014 	ldr	r2, [pc, #20]	; c101d78 <keypad_close+0x40>
 c101d60:	e5832000 	str	r2, [r3]
 c101d64:	e24bd00c 	sub	sp, fp, #12
 c101d68:	e89d6800 	ldm	sp, {fp, sp, lr}
 c101d6c:	e12fff1e 	bx	lr
 c101d70:	01e0000c 	.word	0x01e0000c
 c101d74:	0c7fff70 	.word	0x0c7fff70
 c101d78:	0c104a7c 	.word	0x0c104a7c

0c101d7c <keypad_init>:
 c101d7c:	e1a0c00d 	mov	ip, sp
 c101d80:	e92dd800 	push	{fp, ip, lr, pc}
 c101d84:	e24cb004 	sub	fp, ip, #4
 c101d88:	e3a0000a 	mov	r0, #10
 c101d8c:	eb000629 	bl	c103638 <power_on>
 c101d90:	e59f305c 	ldr	r3, [pc, #92]	; c101df4 <keypad_init+0x78>
 c101d94:	e59f2058 	ldr	r2, [pc, #88]	; c101df4 <keypad_init+0x78>
 c101d98:	e5922000 	ldr	r2, [r2]
 c101d9c:	e3822c01 	orr	r2, r2, #256	; 0x100
 c101da0:	e5832000 	str	r2, [r3]
 c101da4:	e59f304c 	ldr	r3, [pc, #76]	; c101df8 <keypad_init+0x7c>
 c101da8:	e59f2048 	ldr	r2, [pc, #72]	; c101df8 <keypad_init+0x7c>
 c101dac:	e5922000 	ldr	r2, [r2]
 c101db0:	e382200c 	orr	r2, r2, #12
 c101db4:	e5832000 	str	r2, [r3]
 c101db8:	e59f303c 	ldr	r3, [pc, #60]	; c101dfc <keypad_init+0x80>
 c101dbc:	e59f2038 	ldr	r2, [pc, #56]	; c101dfc <keypad_init+0x80>
 c101dc0:	e5922000 	ldr	r2, [r2]
 c101dc4:	e3c22002 	bic	r2, r2, #2
 c101dc8:	e5832000 	str	r2, [r3]
 c101dcc:	e59f302c 	ldr	r3, [pc, #44]	; c101e00 <keypad_init+0x84>
 c101dd0:	e59f2028 	ldr	r2, [pc, #40]	; c101e00 <keypad_init+0x84>
 c101dd4:	e5922000 	ldr	r2, [r2]
 c101dd8:	e3c220f0 	bic	r2, r2, #240	; 0xf0
 c101ddc:	e3822020 	orr	r2, r2, #32
 c101de0:	e5832000 	str	r2, [r3]
 c101de4:	eb000cdb 	bl	c105158 <timers_init>
 c101de8:	e24bd00c 	sub	sp, fp, #12
 c101dec:	e89d6800 	ldm	sp, {fp, sp, lr}
 c101df0:	e12fff1e 	bx	lr
 c101df4:	01d20008 	.word	0x01d20008
 c101df8:	01d20040 	.word	0x01d20040
 c101dfc:	01d20048 	.word	0x01d20048
 c101e00:	01d20050 	.word	0x01d20050

0c101e04 <keypad_getchar>:
 c101e04:	e1a0c00d 	mov	ip, sp
 c101e08:	e92dd800 	push	{fp, ip, lr, pc}
 c101e0c:	e24cb004 	sub	fp, ip, #4
 c101e10:	e24dd008 	sub	sp, sp, #8
 c101e14:	e1a00000 	nop			; (mov r0, r0)
 c101e18:	e59f3054 	ldr	r3, [pc, #84]	; c101e74 <keypad_getchar+0x70>
 c101e1c:	e5933000 	ldr	r3, [r3]
 c101e20:	e2033002 	and	r3, r3, #2
 c101e24:	e3530000 	cmp	r3, #0
 c101e28:	1afffffa 	bne	c101e18 <keypad_getchar+0x14>
 c101e2c:	e3a0001e 	mov	r0, #30
 c101e30:	eb000d7a 	bl	c105420 <sw_delay_ms>
 c101e34:	ebfffeab 	bl	c1018e8 <keypad_scan>
 c101e38:	e1a03000 	mov	r3, r0
 c101e3c:	e54b300d 	strb	r3, [fp, #-13]
 c101e40:	e1a00000 	nop			; (mov r0, r0)
 c101e44:	e59f3028 	ldr	r3, [pc, #40]	; c101e74 <keypad_getchar+0x70>
 c101e48:	e5933000 	ldr	r3, [r3]
 c101e4c:	e2033002 	and	r3, r3, #2
 c101e50:	e3530000 	cmp	r3, #0
 c101e54:	0afffffa 	beq	c101e44 <keypad_getchar+0x40>
 c101e58:	e3a00064 	mov	r0, #100	; 0x64
 c101e5c:	eb000d6f 	bl	c105420 <sw_delay_ms>
 c101e60:	e55b300d 	ldrb	r3, [fp, #-13]
 c101e64:	e1a00003 	mov	r0, r3
 c101e68:	e24bd00c 	sub	sp, fp, #12
 c101e6c:	e89d6800 	ldm	sp, {fp, sp, lr}
 c101e70:	e12fff1e 	bx	lr
 c101e74:	01d20044 	.word	0x01d20044

0c101e78 <lcd_init>:
 c101e78:	e1a0c00d 	mov	ip, sp
 c101e7c:	e92dd800 	push	{fp, ip, lr, pc}
 c101e80:	e24cb004 	sub	fp, ip, #4
 c101e84:	e3a00006 	mov	r0, #6
 c101e88:	eb0005ea 	bl	c103638 <power_on>
 c101e8c:	e59f3114 	ldr	r3, [pc, #276]	; c101fa8 <lcd_init+0x130>
 c101e90:	e59f2114 	ldr	r2, [pc, #276]	; c101fac <lcd_init+0x134>
 c101e94:	e5832000 	str	r2, [r3]
 c101e98:	e59f3110 	ldr	r3, [pc, #272]	; c101fb0 <lcd_init+0x138>
 c101e9c:	e3a020ff 	mov	r2, #255	; 0xff
 c101ea0:	e5832000 	str	r2, [r3]
 c101ea4:	e59f3108 	ldr	r3, [pc, #264]	; c101fb4 <lcd_init+0x13c>
 c101ea8:	e59f2108 	ldr	r2, [pc, #264]	; c101fb8 <lcd_init+0x140>
 c101eac:	e5832000 	str	r2, [r3]
 c101eb0:	e59f3104 	ldr	r3, [pc, #260]	; c101fbc <lcd_init+0x144>
 c101eb4:	e59f2104 	ldr	r2, [pc, #260]	; c101fc0 <lcd_init+0x148>
 c101eb8:	e5832000 	str	r2, [r3]
 c101ebc:	e59f3100 	ldr	r3, [pc, #256]	; c101fc4 <lcd_init+0x14c>
 c101ec0:	e59f2100 	ldr	r2, [pc, #256]	; c101fc8 <lcd_init+0x150>
 c101ec4:	e5832000 	str	r2, [r3]
 c101ec8:	e59f30fc 	ldr	r3, [pc, #252]	; c101fcc <lcd_init+0x154>
 c101ecc:	e59f20fc 	ldr	r2, [pc, #252]	; c101fd0 <lcd_init+0x158>
 c101ed0:	e5832000 	str	r2, [r3]
 c101ed4:	e59f30f8 	ldr	r3, [pc, #248]	; c101fd4 <lcd_init+0x15c>
 c101ed8:	e59f20f8 	ldr	r2, [pc, #248]	; c101fd8 <lcd_init+0x160>
 c101edc:	e5832000 	str	r2, [r3]
 c101ee0:	e59f30f4 	ldr	r3, [pc, #244]	; c101fdc <lcd_init+0x164>
 c101ee4:	e59f20f4 	ldr	r2, [pc, #244]	; c101fe0 <lcd_init+0x168>
 c101ee8:	e5832000 	str	r2, [r3]
 c101eec:	e59f30f0 	ldr	r3, [pc, #240]	; c101fe4 <lcd_init+0x16c>
 c101ef0:	e59f20f0 	ldr	r2, [pc, #240]	; c101fe8 <lcd_init+0x170>
 c101ef4:	e5832000 	str	r2, [r3]
 c101ef8:	e59f30ec 	ldr	r3, [pc, #236]	; c101fec <lcd_init+0x174>
 c101efc:	e59f20ec 	ldr	r2, [pc, #236]	; c101ff0 <lcd_init+0x178>
 c101f00:	e5832000 	str	r2, [r3]
 c101f04:	e59f30e8 	ldr	r3, [pc, #232]	; c101ff4 <lcd_init+0x17c>
 c101f08:	e59f20e8 	ldr	r2, [pc, #232]	; c101ff8 <lcd_init+0x180>
 c101f0c:	e5832000 	str	r2, [r3]
 c101f10:	e59f30e4 	ldr	r3, [pc, #228]	; c101ffc <lcd_init+0x184>
 c101f14:	e3a02000 	mov	r2, #0
 c101f18:	e5832000 	str	r2, [r3]
 c101f1c:	e59f30dc 	ldr	r3, [pc, #220]	; c102000 <lcd_init+0x188>
 c101f20:	e3a02000 	mov	r2, #0
 c101f24:	e5832000 	str	r2, [r3]
 c101f28:	e59f30d4 	ldr	r3, [pc, #212]	; c102004 <lcd_init+0x18c>
 c101f2c:	e3a02000 	mov	r2, #0
 c101f30:	e5832000 	str	r2, [r3]
 c101f34:	e59f30cc 	ldr	r3, [pc, #204]	; c102008 <lcd_init+0x190>
 c101f38:	e59f20cc 	ldr	r2, [pc, #204]	; c10200c <lcd_init+0x194>
 c101f3c:	e5832000 	str	r2, [r3]
 c101f40:	e59f30c8 	ldr	r3, [pc, #200]	; c102010 <lcd_init+0x198>
 c101f44:	e3a02000 	mov	r2, #0
 c101f48:	e5832000 	str	r2, [r3]
 c101f4c:	e59f30c0 	ldr	r3, [pc, #192]	; c102014 <lcd_init+0x19c>
 c101f50:	e59f20c0 	ldr	r2, [pc, #192]	; c102018 <lcd_init+0x1a0>
 c101f54:	e1a020a2 	lsr	r2, r2, #1
 c101f58:	e3822201 	orr	r2, r2, #268435456	; 0x10000000
 c101f5c:	e5832000 	str	r2, [r3]
 c101f60:	e59f20b4 	ldr	r2, [pc, #180]	; c10201c <lcd_init+0x1a4>
 c101f64:	e59f30ac 	ldr	r3, [pc, #172]	; c102018 <lcd_init+0x1a0>
 c101f68:	e2833c96 	add	r3, r3, #38400	; 0x9600
 c101f6c:	e3c334ff 	bic	r3, r3, #-16777216	; 0xff000000
 c101f70:	e3c33503 	bic	r3, r3, #12582912	; 0xc00000
 c101f74:	e1a030a3 	lsr	r3, r3, #1
 c101f78:	e3833202 	orr	r3, r3, #536870912	; 0x20000000
 c101f7c:	e5823000 	str	r3, [r2]
 c101f80:	e59f3098 	ldr	r3, [pc, #152]	; c102020 <lcd_init+0x1a8>
 c101f84:	e3a02050 	mov	r2, #80	; 0x50
 c101f88:	e5832000 	str	r2, [r3]
 c101f8c:	e3a0361f 	mov	r3, #32505856	; 0x1f00000
 c101f90:	e59f208c 	ldr	r2, [pc, #140]	; c102024 <lcd_init+0x1ac>
 c101f94:	e5832000 	str	r2, [r3]
 c101f98:	eb000031 	bl	c102064 <lcd_off>
 c101f9c:	e24bd00c 	sub	sp, fp, #12
 c101fa0:	e89d6800 	ldm	sp, {fp, sp, lr}
 c101fa4:	e12fff1e 	bx	lr
 c101fa8:	01d2001c 	.word	0x01d2001c
 c101fac:	0000aaaa 	.word	0x0000aaaa
 c101fb0:	01d20024 	.word	0x01d20024
 c101fb4:	01f00044 	.word	0x01f00044
 c101fb8:	00012210 	.word	0x00012210
 c101fbc:	01f00020 	.word	0x01f00020
 c101fc0:	0000a5a5 	.word	0x0000a5a5
 c101fc4:	01f00024 	.word	0x01f00024
 c101fc8:	0ba5da65 	.word	0x0ba5da65
 c101fcc:	01f00028 	.word	0x01f00028
 c101fd0:	000a5a5f 	.word	0x000a5a5f
 c101fd4:	01f0002c 	.word	0x01f0002c
 c101fd8:	00000d6b 	.word	0x00000d6b
 c101fdc:	01f00030 	.word	0x01f00030
 c101fe0:	0eb7b5ed 	.word	0x0eb7b5ed
 c101fe4:	01f00034 	.word	0x01f00034
 c101fe8:	00007dbe 	.word	0x00007dbe
 c101fec:	01f00038 	.word	0x01f00038
 c101ff0:	0007ebdf 	.word	0x0007ebdf
 c101ff4:	01f0003c 	.word	0x01f0003c
 c101ff8:	07fdfbfe 	.word	0x07fdfbfe
 c101ffc:	01f00014 	.word	0x01f00014
 c102000:	01f00018 	.word	0x01f00018
 c102004:	01f0001c 	.word	0x01f0001c
 c102008:	01f00004 	.word	0x01f00004
 c10200c:	00013cef 	.word	0x00013cef
 c102010:	01f00040 	.word	0x01f00040
 c102014:	01f00008 	.word	0x01f00008
 c102018:	0c108d38 	.word	0x0c108d38
 c10201c:	01f0000c 	.word	0x01f0000c
 c102020:	01f00010 	.word	0x01f00010
 c102024:	0001c020 	.word	0x0001c020

0c102028 <lcd_on>:
 c102028:	e1a0c00d 	mov	ip, sp
 c10202c:	e92dd800 	push	{fp, ip, lr, pc}
 c102030:	e24cb004 	sub	fp, ip, #4
 c102034:	e3a0361f 	mov	r3, #32505856	; 0x1f00000
 c102038:	e3a0261f 	mov	r2, #32505856	; 0x1f00000
 c10203c:	e5922000 	ldr	r2, [r2]
 c102040:	e3822001 	orr	r2, r2, #1
 c102044:	e5832000 	str	r2, [r3]
 c102048:	e59f3010 	ldr	r3, [pc, #16]	; c102060 <lcd_on+0x38>
 c10204c:	e3a02001 	mov	r2, #1
 c102050:	e5c32000 	strb	r2, [r3]
 c102054:	e24bd00c 	sub	sp, fp, #12
 c102058:	e89d6800 	ldm	sp, {fp, sp, lr}
 c10205c:	e12fff1e 	bx	lr
 c102060:	0c11233c 	.word	0x0c11233c

0c102064 <lcd_off>:
 c102064:	e1a0c00d 	mov	ip, sp
 c102068:	e92dd800 	push	{fp, ip, lr, pc}
 c10206c:	e24cb004 	sub	fp, ip, #4
 c102070:	e3a0361f 	mov	r3, #32505856	; 0x1f00000
 c102074:	e3a0261f 	mov	r2, #32505856	; 0x1f00000
 c102078:	e5922000 	ldr	r2, [r2]
 c10207c:	e3c22001 	bic	r2, r2, #1
 c102080:	e5832000 	str	r2, [r3]
 c102084:	e59f3010 	ldr	r3, [pc, #16]	; c10209c <lcd_off+0x38>
 c102088:	e3a02000 	mov	r2, #0
 c10208c:	e5c32000 	strb	r2, [r3]
 c102090:	e24bd00c 	sub	sp, fp, #12
 c102094:	e89d6800 	ldm	sp, {fp, sp, lr}
 c102098:	e12fff1e 	bx	lr
 c10209c:	0c11233c 	.word	0x0c11233c

0c1020a0 <lcd_status>:
 c1020a0:	e1a0c00d 	mov	ip, sp
 c1020a4:	e92dd800 	push	{fp, ip, lr, pc}
 c1020a8:	e24cb004 	sub	fp, ip, #4
 c1020ac:	e59f3010 	ldr	r3, [pc, #16]	; c1020c4 <lcd_status+0x24>
 c1020b0:	e5d33000 	ldrb	r3, [r3]
 c1020b4:	e1a00003 	mov	r0, r3
 c1020b8:	e24bd00c 	sub	sp, fp, #12
 c1020bc:	e89d6800 	ldm	sp, {fp, sp, lr}
 c1020c0:	e12fff1e 	bx	lr
 c1020c4:	0c11233c 	.word	0x0c11233c

0c1020c8 <lcd_clear>:
 c1020c8:	e1a0c00d 	mov	ip, sp
 c1020cc:	e92dd800 	push	{fp, ip, lr, pc}
 c1020d0:	e24cb004 	sub	fp, ip, #4
 c1020d4:	e24dd008 	sub	sp, sp, #8
 c1020d8:	e3a03000 	mov	r3, #0
 c1020dc:	e50b3010 	str	r3, [fp, #-16]
 c1020e0:	ea000007 	b	c102104 <lcd_clear+0x3c>
 c1020e4:	e59f2034 	ldr	r2, [pc, #52]	; c102120 <lcd_clear+0x58>
 c1020e8:	e51b3010 	ldr	r3, [fp, #-16]
 c1020ec:	e0823003 	add	r3, r2, r3
 c1020f0:	e3a02000 	mov	r2, #0
 c1020f4:	e5c32000 	strb	r2, [r3]
 c1020f8:	e51b3010 	ldr	r3, [fp, #-16]
 c1020fc:	e2833001 	add	r3, r3, #1
 c102100:	e50b3010 	str	r3, [fp, #-16]
 c102104:	e51b2010 	ldr	r2, [fp, #-16]
 c102108:	e59f3014 	ldr	r3, [pc, #20]	; c102124 <lcd_clear+0x5c>
 c10210c:	e1520003 	cmp	r2, r3
 c102110:	9afffff3 	bls	c1020e4 <lcd_clear+0x1c>
 c102114:	e24bd00c 	sub	sp, fp, #12
 c102118:	e89d6800 	ldm	sp, {fp, sp, lr}
 c10211c:	e12fff1e 	bx	lr
 c102120:	0c108d38 	.word	0x0c108d38
 c102124:	000095ff 	.word	0x000095ff

0c102128 <lcd_putpixel>:
 c102128:	e1a0c00d 	mov	ip, sp
 c10212c:	e92dd800 	push	{fp, ip, lr, pc}
 c102130:	e24cb004 	sub	fp, ip, #4
 c102134:	e24dd010 	sub	sp, sp, #16
 c102138:	e1a03002 	mov	r3, r2
 c10213c:	e14b01b6 	strh	r0, [fp, #-22]	; 0xffffffea
 c102140:	e14b11b8 	strh	r1, [fp, #-24]	; 0xffffffe8
 c102144:	e54b3019 	strb	r3, [fp, #-25]	; 0xffffffe7
 c102148:	e15b31b6 	ldrh	r3, [fp, #-22]	; 0xffffffea
 c10214c:	e1a030a3 	lsr	r3, r3, #1
 c102150:	e1a03803 	lsl	r3, r3, #16
 c102154:	e1a02823 	lsr	r2, r3, #16
 c102158:	e15b31b8 	ldrh	r3, [fp, #-24]	; 0xffffffe8
 c10215c:	e1a01003 	mov	r1, r3
 c102160:	e1a01101 	lsl	r1, r1, #2
 c102164:	e0813003 	add	r3, r1, r3
 c102168:	e1a03283 	lsl	r3, r3, #5
 c10216c:	e1a03803 	lsl	r3, r3, #16
 c102170:	e1a03823 	lsr	r3, r3, #16
 c102174:	e0823003 	add	r3, r2, r3
 c102178:	e14b30be 	strh	r3, [fp, #-14]
 c10217c:	e15b31b6 	ldrh	r3, [fp, #-22]	; 0xffffffea
 c102180:	e2033001 	and	r3, r3, #1
 c102184:	e3530000 	cmp	r3, #0
 c102188:	1a000001 	bne	c102194 <lcd_putpixel+0x6c>
 c10218c:	e3a03004 	mov	r3, #4
 c102190:	ea000000 	b	c102198 <lcd_putpixel+0x70>
 c102194:	e3a03000 	mov	r3, #0
 c102198:	e54b300f 	strb	r3, [fp, #-15]
 c10219c:	e15b30be 	ldrh	r3, [fp, #-14]
 c1021a0:	e59f2068 	ldr	r2, [pc, #104]	; c102210 <lcd_putpixel+0xe8>
 c1021a4:	e7d23003 	ldrb	r3, [r2, r3]
 c1021a8:	e54b3010 	strb	r3, [fp, #-16]
 c1021ac:	e55b300f 	ldrb	r3, [fp, #-15]
 c1021b0:	e3a0200f 	mov	r2, #15
 c1021b4:	e1a03312 	lsl	r3, r2, r3
 c1021b8:	e20330ff 	and	r3, r3, #255	; 0xff
 c1021bc:	e1e03003 	mvn	r3, r3
 c1021c0:	e20320ff 	and	r2, r3, #255	; 0xff
 c1021c4:	e55b3010 	ldrb	r3, [fp, #-16]
 c1021c8:	e0023003 	and	r3, r2, r3
 c1021cc:	e20330ff 	and	r3, r3, #255	; 0xff
 c1021d0:	e54b3010 	strb	r3, [fp, #-16]
 c1021d4:	e55b2019 	ldrb	r2, [fp, #-25]	; 0xffffffe7
 c1021d8:	e55b300f 	ldrb	r3, [fp, #-15]
 c1021dc:	e1a03312 	lsl	r3, r2, r3
 c1021e0:	e20320ff 	and	r2, r3, #255	; 0xff
 c1021e4:	e55b3010 	ldrb	r3, [fp, #-16]
 c1021e8:	e1823003 	orr	r3, r2, r3
 c1021ec:	e20330ff 	and	r3, r3, #255	; 0xff
 c1021f0:	e54b3010 	strb	r3, [fp, #-16]
 c1021f4:	e15b30be 	ldrh	r3, [fp, #-14]
 c1021f8:	e59f2010 	ldr	r2, [pc, #16]	; c102210 <lcd_putpixel+0xe8>
 c1021fc:	e55b1010 	ldrb	r1, [fp, #-16]
 c102200:	e7c21003 	strb	r1, [r2, r3]
 c102204:	e24bd00c 	sub	sp, fp, #12
 c102208:	e89d6800 	ldm	sp, {fp, sp, lr}
 c10220c:	e12fff1e 	bx	lr
 c102210:	0c108d38 	.word	0x0c108d38

0c102214 <lcd_getpixel>:
 c102214:	e1a0c00d 	mov	ip, sp
 c102218:	e92dd800 	push	{fp, ip, lr, pc}
 c10221c:	e24cb004 	sub	fp, ip, #4
 c102220:	e24dd010 	sub	sp, sp, #16
 c102224:	e1a02000 	mov	r2, r0
 c102228:	e1a03001 	mov	r3, r1
 c10222c:	e14b21b6 	strh	r2, [fp, #-22]	; 0xffffffea
 c102230:	e14b31b8 	strh	r3, [fp, #-24]	; 0xffffffe8
 c102234:	e15b31b6 	ldrh	r3, [fp, #-22]	; 0xffffffea
 c102238:	e1a030a3 	lsr	r3, r3, #1
 c10223c:	e1a03803 	lsl	r3, r3, #16
 c102240:	e1a03823 	lsr	r3, r3, #16
 c102244:	e1a01003 	mov	r1, r3
 c102248:	e15b21b8 	ldrh	r2, [fp, #-24]	; 0xffffffe8
 c10224c:	e1a03002 	mov	r3, r2
 c102250:	e1a03103 	lsl	r3, r3, #2
 c102254:	e0833002 	add	r3, r3, r2
 c102258:	e1a03283 	lsl	r3, r3, #5
 c10225c:	e0813003 	add	r3, r1, r3
 c102260:	e59f2044 	ldr	r2, [pc, #68]	; c1022ac <lcd_getpixel+0x98>
 c102264:	e7d23003 	ldrb	r3, [r2, r3]
 c102268:	e54b300d 	strb	r3, [fp, #-13]
 c10226c:	e55b200d 	ldrb	r2, [fp, #-13]
 c102270:	e15b31b6 	ldrh	r3, [fp, #-22]	; 0xffffffea
 c102274:	e2033001 	and	r3, r3, #1
 c102278:	e3530000 	cmp	r3, #0
 c10227c:	1a000001 	bne	c102288 <lcd_getpixel+0x74>
 c102280:	e3a03004 	mov	r3, #4
 c102284:	ea000000 	b	c10228c <lcd_getpixel+0x78>
 c102288:	e3a03000 	mov	r3, #0
 c10228c:	e1a03352 	asr	r3, r2, r3
 c102290:	e20330ff 	and	r3, r3, #255	; 0xff
 c102294:	e203300f 	and	r3, r3, #15
 c102298:	e20330ff 	and	r3, r3, #255	; 0xff
 c10229c:	e1a00003 	mov	r0, r3
 c1022a0:	e24bd00c 	sub	sp, fp, #12
 c1022a4:	e89d6800 	ldm	sp, {fp, sp, lr}
 c1022a8:	e12fff1e 	bx	lr
 c1022ac:	0c108d38 	.word	0x0c108d38

0c1022b0 <lcd_draw_hline>:
 c1022b0:	e1a0c00d 	mov	ip, sp
 c1022b4:	e92dd800 	push	{fp, ip, lr, pc}
 c1022b8:	e24cb004 	sub	fp, ip, #4
 c1022bc:	e24dd010 	sub	sp, sp, #16
 c1022c0:	e14b01b6 	strh	r0, [fp, #-22]	; 0xffffffea
 c1022c4:	e14b11b8 	strh	r1, [fp, #-24]	; 0xffffffe8
 c1022c8:	e14b21ba 	strh	r2, [fp, #-26]	; 0xffffffe6
 c1022cc:	e54b301b 	strb	r3, [fp, #-27]	; 0xffffffe5
 c1022d0:	ea00003e 	b	c1023d0 <lcd_draw_hline+0x120>
 c1022d4:	e15b31b6 	ldrh	r3, [fp, #-22]	; 0xffffffea
 c1022d8:	e14b30be 	strh	r3, [fp, #-14]
 c1022dc:	ea000034 	b	c1023b4 <lcd_draw_hline+0x104>
 c1022e0:	e15b30be 	ldrh	r3, [fp, #-14]
 c1022e4:	e1a030a3 	lsr	r3, r3, #1
 c1022e8:	e1a03803 	lsl	r3, r3, #16
 c1022ec:	e1a03823 	lsr	r3, r3, #16
 c1022f0:	e1a01003 	mov	r1, r3
 c1022f4:	e15b21ba 	ldrh	r2, [fp, #-26]	; 0xffffffe6
 c1022f8:	e1a03002 	mov	r3, r2
 c1022fc:	e1a03103 	lsl	r3, r3, #2
 c102300:	e0833002 	add	r3, r3, r2
 c102304:	e1a03283 	lsl	r3, r3, #5
 c102308:	e0811003 	add	r1, r1, r3
 c10230c:	e15b30be 	ldrh	r3, [fp, #-14]
 c102310:	e1a030a3 	lsr	r3, r3, #1
 c102314:	e1a03803 	lsl	r3, r3, #16
 c102318:	e1a03823 	lsr	r3, r3, #16
 c10231c:	e1a00003 	mov	r0, r3
 c102320:	e15b21ba 	ldrh	r2, [fp, #-26]	; 0xffffffe6
 c102324:	e1a03002 	mov	r3, r2
 c102328:	e1a03103 	lsl	r3, r3, #2
 c10232c:	e0833002 	add	r3, r3, r2
 c102330:	e1a03283 	lsl	r3, r3, #5
 c102334:	e0803003 	add	r3, r0, r3
 c102338:	e59f20c4 	ldr	r2, [pc, #196]	; c102404 <lcd_draw_hline+0x154>
 c10233c:	e7d23003 	ldrb	r3, [r2, r3]
 c102340:	e20320ff 	and	r2, r3, #255	; 0xff
 c102344:	e15b30be 	ldrh	r3, [fp, #-14]
 c102348:	e2033001 	and	r3, r3, #1
 c10234c:	e1a03103 	lsl	r3, r3, #2
 c102350:	e3a000f0 	mov	r0, #240	; 0xf0
 c102354:	e1a03350 	asr	r3, r0, r3
 c102358:	e20330ff 	and	r3, r3, #255	; 0xff
 c10235c:	e1e03003 	mvn	r3, r3
 c102360:	e20330ff 	and	r3, r3, #255	; 0xff
 c102364:	e0023003 	and	r3, r2, r3
 c102368:	e20320ff 	and	r2, r3, #255	; 0xff
 c10236c:	e55b001b 	ldrb	r0, [fp, #-27]	; 0xffffffe5
 c102370:	e15b30be 	ldrh	r3, [fp, #-14]
 c102374:	e2033001 	and	r3, r3, #1
 c102378:	e3530000 	cmp	r3, #0
 c10237c:	1a000001 	bne	c102388 <lcd_draw_hline+0xd8>
 c102380:	e3a03004 	mov	r3, #4
 c102384:	ea000000 	b	c10238c <lcd_draw_hline+0xdc>
 c102388:	e3a03000 	mov	r3, #0
 c10238c:	e1a03310 	lsl	r3, r0, r3
 c102390:	e20330ff 	and	r3, r3, #255	; 0xff
 c102394:	e1823003 	orr	r3, r2, r3
 c102398:	e20330ff 	and	r3, r3, #255	; 0xff
 c10239c:	e20320ff 	and	r2, r3, #255	; 0xff
 c1023a0:	e59f305c 	ldr	r3, [pc, #92]	; c102404 <lcd_draw_hline+0x154>
 c1023a4:	e7c32001 	strb	r2, [r3, r1]
 c1023a8:	e15b30be 	ldrh	r3, [fp, #-14]
 c1023ac:	e2833001 	add	r3, r3, #1
 c1023b0:	e14b30be 	strh	r3, [fp, #-14]
 c1023b4:	e15b20be 	ldrh	r2, [fp, #-14]
 c1023b8:	e15b31b8 	ldrh	r3, [fp, #-24]	; 0xffffffe8
 c1023bc:	e1520003 	cmp	r2, r3
 c1023c0:	9affffc6 	bls	c1022e0 <lcd_draw_hline+0x30>
 c1023c4:	e15b31ba 	ldrh	r3, [fp, #-26]	; 0xffffffe6
 c1023c8:	e2833001 	add	r3, r3, #1
 c1023cc:	e14b31ba 	strh	r3, [fp, #-26]	; 0xffffffe6
 c1023d0:	e1db30b4 	ldrh	r3, [fp, #4]
 c1023d4:	e3530000 	cmp	r3, #0
 c1023d8:	03a03000 	moveq	r3, #0
 c1023dc:	13a03001 	movne	r3, #1
 c1023e0:	e20330ff 	and	r3, r3, #255	; 0xff
 c1023e4:	e1db20b4 	ldrh	r2, [fp, #4]
 c1023e8:	e2422001 	sub	r2, r2, #1
 c1023ec:	e1cb20b4 	strh	r2, [fp, #4]
 c1023f0:	e3530000 	cmp	r3, #0
 c1023f4:	1affffb6 	bne	c1022d4 <lcd_draw_hline+0x24>
 c1023f8:	e24bd00c 	sub	sp, fp, #12
 c1023fc:	e89d6800 	ldm	sp, {fp, sp, lr}
 c102400:	e12fff1e 	bx	lr
 c102404:	0c108d38 	.word	0x0c108d38

0c102408 <lcd_draw_vline>:
 c102408:	e1a0c00d 	mov	ip, sp
 c10240c:	e92dd800 	push	{fp, ip, lr, pc}
 c102410:	e24cb004 	sub	fp, ip, #4
 c102414:	e24dd010 	sub	sp, sp, #16
 c102418:	e14b01b6 	strh	r0, [fp, #-22]	; 0xffffffea
 c10241c:	e14b11b8 	strh	r1, [fp, #-24]	; 0xffffffe8
 c102420:	e14b21ba 	strh	r2, [fp, #-26]	; 0xffffffe6
 c102424:	e54b301b 	strb	r3, [fp, #-27]	; 0xffffffe5
 c102428:	ea00003e 	b	c102528 <lcd_draw_vline+0x120>
 c10242c:	e15b31b6 	ldrh	r3, [fp, #-22]	; 0xffffffea
 c102430:	e14b30be 	strh	r3, [fp, #-14]
 c102434:	ea000034 	b	c10250c <lcd_draw_vline+0x104>
 c102438:	e15b31ba 	ldrh	r3, [fp, #-26]	; 0xffffffe6
 c10243c:	e1a030a3 	lsr	r3, r3, #1
 c102440:	e1a03803 	lsl	r3, r3, #16
 c102444:	e1a03823 	lsr	r3, r3, #16
 c102448:	e1a01003 	mov	r1, r3
 c10244c:	e15b20be 	ldrh	r2, [fp, #-14]
 c102450:	e1a03002 	mov	r3, r2
 c102454:	e1a03103 	lsl	r3, r3, #2
 c102458:	e0833002 	add	r3, r3, r2
 c10245c:	e1a03283 	lsl	r3, r3, #5
 c102460:	e0811003 	add	r1, r1, r3
 c102464:	e15b31ba 	ldrh	r3, [fp, #-26]	; 0xffffffe6
 c102468:	e1a030a3 	lsr	r3, r3, #1
 c10246c:	e1a03803 	lsl	r3, r3, #16
 c102470:	e1a03823 	lsr	r3, r3, #16
 c102474:	e1a00003 	mov	r0, r3
 c102478:	e15b20be 	ldrh	r2, [fp, #-14]
 c10247c:	e1a03002 	mov	r3, r2
 c102480:	e1a03103 	lsl	r3, r3, #2
 c102484:	e0833002 	add	r3, r3, r2
 c102488:	e1a03283 	lsl	r3, r3, #5
 c10248c:	e0803003 	add	r3, r0, r3
 c102490:	e59f20c4 	ldr	r2, [pc, #196]	; c10255c <lcd_draw_vline+0x154>
 c102494:	e7d23003 	ldrb	r3, [r2, r3]
 c102498:	e20320ff 	and	r2, r3, #255	; 0xff
 c10249c:	e15b31ba 	ldrh	r3, [fp, #-26]	; 0xffffffe6
 c1024a0:	e2033001 	and	r3, r3, #1
 c1024a4:	e1a03103 	lsl	r3, r3, #2
 c1024a8:	e3a000f0 	mov	r0, #240	; 0xf0
 c1024ac:	e1a03350 	asr	r3, r0, r3
 c1024b0:	e20330ff 	and	r3, r3, #255	; 0xff
 c1024b4:	e1e03003 	mvn	r3, r3
 c1024b8:	e20330ff 	and	r3, r3, #255	; 0xff
 c1024bc:	e0023003 	and	r3, r2, r3
 c1024c0:	e20320ff 	and	r2, r3, #255	; 0xff
 c1024c4:	e55b001b 	ldrb	r0, [fp, #-27]	; 0xffffffe5
 c1024c8:	e15b31ba 	ldrh	r3, [fp, #-26]	; 0xffffffe6
 c1024cc:	e2033001 	and	r3, r3, #1
 c1024d0:	e3530000 	cmp	r3, #0
 c1024d4:	1a000001 	bne	c1024e0 <lcd_draw_vline+0xd8>
 c1024d8:	e3a03004 	mov	r3, #4
 c1024dc:	ea000000 	b	c1024e4 <lcd_draw_vline+0xdc>
 c1024e0:	e3a03000 	mov	r3, #0
 c1024e4:	e1a03310 	lsl	r3, r0, r3
 c1024e8:	e20330ff 	and	r3, r3, #255	; 0xff
 c1024ec:	e1823003 	orr	r3, r2, r3
 c1024f0:	e20330ff 	and	r3, r3, #255	; 0xff
 c1024f4:	e20320ff 	and	r2, r3, #255	; 0xff
 c1024f8:	e59f305c 	ldr	r3, [pc, #92]	; c10255c <lcd_draw_vline+0x154>
 c1024fc:	e7c32001 	strb	r2, [r3, r1]
 c102500:	e15b30be 	ldrh	r3, [fp, #-14]
 c102504:	e2833001 	add	r3, r3, #1
 c102508:	e14b30be 	strh	r3, [fp, #-14]
 c10250c:	e15b20be 	ldrh	r2, [fp, #-14]
 c102510:	e15b31b8 	ldrh	r3, [fp, #-24]	; 0xffffffe8
 c102514:	e1520003 	cmp	r2, r3
 c102518:	9affffc6 	bls	c102438 <lcd_draw_vline+0x30>
 c10251c:	e15b31ba 	ldrh	r3, [fp, #-26]	; 0xffffffe6
 c102520:	e2833001 	add	r3, r3, #1
 c102524:	e14b31ba 	strh	r3, [fp, #-26]	; 0xffffffe6
 c102528:	e1db30b4 	ldrh	r3, [fp, #4]
 c10252c:	e3530000 	cmp	r3, #0
 c102530:	03a03000 	moveq	r3, #0
 c102534:	13a03001 	movne	r3, #1
 c102538:	e20330ff 	and	r3, r3, #255	; 0xff
 c10253c:	e1db20b4 	ldrh	r2, [fp, #4]
 c102540:	e2422001 	sub	r2, r2, #1
 c102544:	e1cb20b4 	strh	r2, [fp, #4]
 c102548:	e3530000 	cmp	r3, #0
 c10254c:	1affffb6 	bne	c10242c <lcd_draw_vline+0x24>
 c102550:	e24bd00c 	sub	sp, fp, #12
 c102554:	e89d6800 	ldm	sp, {fp, sp, lr}
 c102558:	e12fff1e 	bx	lr
 c10255c:	0c108d38 	.word	0x0c108d38

0c102560 <lcd_draw_box>:
 c102560:	e1a0c00d 	mov	ip, sp
 c102564:	e92dd800 	push	{fp, ip, lr, pc}
 c102568:	e24cb004 	sub	fp, ip, #4
 c10256c:	e24dd010 	sub	sp, sp, #16
 c102570:	e14b00be 	strh	r0, [fp, #-14]
 c102574:	e14b11b0 	strh	r1, [fp, #-16]
 c102578:	e14b21b2 	strh	r2, [fp, #-18]	; 0xffffffee
 c10257c:	e14b31b4 	strh	r3, [fp, #-20]	; 0xffffffec
 c102580:	ea000027 	b	c102624 <lcd_draw_box+0xc4>
 c102584:	e15b00be 	ldrh	r0, [fp, #-14]
 c102588:	e15b11b2 	ldrh	r1, [fp, #-18]	; 0xffffffee
 c10258c:	e15b21b0 	ldrh	r2, [fp, #-16]
 c102590:	e5db3004 	ldrb	r3, [fp, #4]
 c102594:	e3a0c001 	mov	ip, #1
 c102598:	e58dc000 	str	ip, [sp]
 c10259c:	ebffff43 	bl	c1022b0 <lcd_draw_hline>
 c1025a0:	e15b00be 	ldrh	r0, [fp, #-14]
 c1025a4:	e15b11b2 	ldrh	r1, [fp, #-18]	; 0xffffffee
 c1025a8:	e15b21b4 	ldrh	r2, [fp, #-20]	; 0xffffffec
 c1025ac:	e5db3004 	ldrb	r3, [fp, #4]
 c1025b0:	e3a0c001 	mov	ip, #1
 c1025b4:	e58dc000 	str	ip, [sp]
 c1025b8:	ebffff3c 	bl	c1022b0 <lcd_draw_hline>
 c1025bc:	e15b01b0 	ldrh	r0, [fp, #-16]
 c1025c0:	e15b11b4 	ldrh	r1, [fp, #-20]	; 0xffffffec
 c1025c4:	e15b20be 	ldrh	r2, [fp, #-14]
 c1025c8:	e5db3004 	ldrb	r3, [fp, #4]
 c1025cc:	e3a0c001 	mov	ip, #1
 c1025d0:	e58dc000 	str	ip, [sp]
 c1025d4:	ebffff8b 	bl	c102408 <lcd_draw_vline>
 c1025d8:	e15b01b0 	ldrh	r0, [fp, #-16]
 c1025dc:	e15b11b4 	ldrh	r1, [fp, #-20]	; 0xffffffec
 c1025e0:	e15b21b2 	ldrh	r2, [fp, #-18]	; 0xffffffee
 c1025e4:	e5db3004 	ldrb	r3, [fp, #4]
 c1025e8:	e3a0c001 	mov	ip, #1
 c1025ec:	e58dc000 	str	ip, [sp]
 c1025f0:	ebffff84 	bl	c102408 <lcd_draw_vline>
 c1025f4:	e15b30be 	ldrh	r3, [fp, #-14]
 c1025f8:	e2833001 	add	r3, r3, #1
 c1025fc:	e14b30be 	strh	r3, [fp, #-14]
 c102600:	e15b31b2 	ldrh	r3, [fp, #-18]	; 0xffffffee
 c102604:	e2433001 	sub	r3, r3, #1
 c102608:	e14b31b2 	strh	r3, [fp, #-18]	; 0xffffffee
 c10260c:	e15b31b0 	ldrh	r3, [fp, #-16]
 c102610:	e2833001 	add	r3, r3, #1
 c102614:	e14b31b0 	strh	r3, [fp, #-16]
 c102618:	e15b31b4 	ldrh	r3, [fp, #-20]	; 0xffffffec
 c10261c:	e2433001 	sub	r3, r3, #1
 c102620:	e14b31b4 	strh	r3, [fp, #-20]	; 0xffffffec
 c102624:	e1db30b8 	ldrh	r3, [fp, #8]
 c102628:	e3530000 	cmp	r3, #0
 c10262c:	03a03000 	moveq	r3, #0
 c102630:	13a03001 	movne	r3, #1
 c102634:	e20330ff 	and	r3, r3, #255	; 0xff
 c102638:	e1db20b8 	ldrh	r2, [fp, #8]
 c10263c:	e2422001 	sub	r2, r2, #1
 c102640:	e1cb20b8 	strh	r2, [fp, #8]
 c102644:	e3530000 	cmp	r3, #0
 c102648:	1affffcd 	bne	c102584 <lcd_draw_box+0x24>
 c10264c:	e24bd00c 	sub	sp, fp, #12
 c102650:	e89d6800 	ldm	sp, {fp, sp, lr}
 c102654:	e12fff1e 	bx	lr

0c102658 <lcd_putchar>:
 c102658:	e1a0c00d 	mov	ip, sp
 c10265c:	e92dd800 	push	{fp, ip, lr, pc}
 c102660:	e24cb004 	sub	fp, ip, #4
 c102664:	e24dd010 	sub	sp, sp, #16
 c102668:	e14b01b6 	strh	r0, [fp, #-22]	; 0xffffffea
 c10266c:	e14b11b8 	strh	r1, [fp, #-24]	; 0xffffffe8
 c102670:	e54b2019 	strb	r2, [fp, #-25]	; 0xffffffe7
 c102674:	e54b301a 	strb	r3, [fp, #-26]	; 0xffffffe6
 c102678:	e55b301a 	ldrb	r3, [fp, #-26]	; 0xffffffe6
 c10267c:	e1a03203 	lsl	r3, r3, #4
 c102680:	e1a02003 	mov	r2, r3
 c102684:	e59f3240 	ldr	r3, [pc, #576]	; c1028cc <lcd_putchar+0x274>
 c102688:	e0823003 	add	r3, r2, r3
 c10268c:	e50b3014 	str	r3, [fp, #-20]	; 0xffffffec
 c102690:	e3a03000 	mov	r3, #0
 c102694:	e54b300d 	strb	r3, [fp, #-13]
 c102698:	ea000085 	b	c1028b4 <lcd_putchar+0x25c>
 c10269c:	e3a03000 	mov	r3, #0
 c1026a0:	e54b300e 	strb	r3, [fp, #-14]
 c1026a4:	ea00007c 	b	c10289c <lcd_putchar+0x244>
 c1026a8:	e55b300d 	ldrb	r3, [fp, #-13]
 c1026ac:	e51b2014 	ldr	r2, [fp, #-20]	; 0xffffffec
 c1026b0:	e0823003 	add	r3, r2, r3
 c1026b4:	e5d33000 	ldrb	r3, [r3]
 c1026b8:	e1a02003 	mov	r2, r3
 c1026bc:	e55b300e 	ldrb	r3, [fp, #-14]
 c1026c0:	e3a01080 	mov	r1, #128	; 0x80
 c1026c4:	e1a03351 	asr	r3, r1, r3
 c1026c8:	e0023003 	and	r3, r2, r3
 c1026cc:	e3530000 	cmp	r3, #0
 c1026d0:	0a00003e 	beq	c1027d0 <lcd_putchar+0x178>
 c1026d4:	e15b21b6 	ldrh	r2, [fp, #-22]	; 0xffffffea
 c1026d8:	e55b300e 	ldrb	r3, [fp, #-14]
 c1026dc:	e0823003 	add	r3, r2, r3
 c1026e0:	e1a02fa3 	lsr	r2, r3, #31
 c1026e4:	e0823003 	add	r3, r2, r3
 c1026e8:	e1a030c3 	asr	r3, r3, #1
 c1026ec:	e1a01003 	mov	r1, r3
 c1026f0:	e15b21b8 	ldrh	r2, [fp, #-24]	; 0xffffffe8
 c1026f4:	e55b300d 	ldrb	r3, [fp, #-13]
 c1026f8:	e0822003 	add	r2, r2, r3
 c1026fc:	e1a03002 	mov	r3, r2
 c102700:	e1a03103 	lsl	r3, r3, #2
 c102704:	e0833002 	add	r3, r3, r2
 c102708:	e1a03283 	lsl	r3, r3, #5
 c10270c:	e0811003 	add	r1, r1, r3
 c102710:	e15b21b6 	ldrh	r2, [fp, #-22]	; 0xffffffea
 c102714:	e55b300e 	ldrb	r3, [fp, #-14]
 c102718:	e0823003 	add	r3, r2, r3
 c10271c:	e1a02fa3 	lsr	r2, r3, #31
 c102720:	e0823003 	add	r3, r2, r3
 c102724:	e1a030c3 	asr	r3, r3, #1
 c102728:	e1a00003 	mov	r0, r3
 c10272c:	e15b21b8 	ldrh	r2, [fp, #-24]	; 0xffffffe8
 c102730:	e55b300d 	ldrb	r3, [fp, #-13]
 c102734:	e0822003 	add	r2, r2, r3
 c102738:	e1a03002 	mov	r3, r2
 c10273c:	e1a03103 	lsl	r3, r3, #2
 c102740:	e0833002 	add	r3, r3, r2
 c102744:	e1a03283 	lsl	r3, r3, #5
 c102748:	e0803003 	add	r3, r0, r3
 c10274c:	e59f217c 	ldr	r2, [pc, #380]	; c1028d0 <lcd_putchar+0x278>
 c102750:	e7d23003 	ldrb	r3, [r2, r3]
 c102754:	e20320ff 	and	r2, r3, #255	; 0xff
 c102758:	e15b01b6 	ldrh	r0, [fp, #-22]	; 0xffffffea
 c10275c:	e55b300e 	ldrb	r3, [fp, #-14]
 c102760:	e0803003 	add	r3, r0, r3
 c102764:	e2033001 	and	r3, r3, #1
 c102768:	e1a03103 	lsl	r3, r3, #2
 c10276c:	e3a000f0 	mov	r0, #240	; 0xf0
 c102770:	e1a03350 	asr	r3, r0, r3
 c102774:	e20330ff 	and	r3, r3, #255	; 0xff
 c102778:	e1e03003 	mvn	r3, r3
 c10277c:	e20330ff 	and	r3, r3, #255	; 0xff
 c102780:	e0023003 	and	r3, r2, r3
 c102784:	e20320ff 	and	r2, r3, #255	; 0xff
 c102788:	e55b0019 	ldrb	r0, [fp, #-25]	; 0xffffffe7
 c10278c:	e15bc1b6 	ldrh	ip, [fp, #-22]	; 0xffffffea
 c102790:	e55b300e 	ldrb	r3, [fp, #-14]
 c102794:	e08c3003 	add	r3, ip, r3
 c102798:	e2033001 	and	r3, r3, #1
 c10279c:	e3530000 	cmp	r3, #0
 c1027a0:	1a000001 	bne	c1027ac <lcd_putchar+0x154>
 c1027a4:	e3a03004 	mov	r3, #4
 c1027a8:	ea000000 	b	c1027b0 <lcd_putchar+0x158>
 c1027ac:	e3a03000 	mov	r3, #0
 c1027b0:	e1a03310 	lsl	r3, r0, r3
 c1027b4:	e20330ff 	and	r3, r3, #255	; 0xff
 c1027b8:	e1823003 	orr	r3, r2, r3
 c1027bc:	e20330ff 	and	r3, r3, #255	; 0xff
 c1027c0:	e20320ff 	and	r2, r3, #255	; 0xff
 c1027c4:	e59f3104 	ldr	r3, [pc, #260]	; c1028d0 <lcd_putchar+0x278>
 c1027c8:	e7c32001 	strb	r2, [r3, r1]
 c1027cc:	ea00002f 	b	c102890 <lcd_putchar+0x238>
 c1027d0:	e15b21b6 	ldrh	r2, [fp, #-22]	; 0xffffffea
 c1027d4:	e55b300e 	ldrb	r3, [fp, #-14]
 c1027d8:	e0823003 	add	r3, r2, r3
 c1027dc:	e1a02fa3 	lsr	r2, r3, #31
 c1027e0:	e0823003 	add	r3, r2, r3
 c1027e4:	e1a030c3 	asr	r3, r3, #1
 c1027e8:	e1a01003 	mov	r1, r3
 c1027ec:	e15b21b8 	ldrh	r2, [fp, #-24]	; 0xffffffe8
 c1027f0:	e55b300d 	ldrb	r3, [fp, #-13]
 c1027f4:	e0822003 	add	r2, r2, r3
 c1027f8:	e1a03002 	mov	r3, r2
 c1027fc:	e1a03103 	lsl	r3, r3, #2
 c102800:	e0833002 	add	r3, r3, r2
 c102804:	e1a03283 	lsl	r3, r3, #5
 c102808:	e0811003 	add	r1, r1, r3
 c10280c:	e15b21b6 	ldrh	r2, [fp, #-22]	; 0xffffffea
 c102810:	e55b300e 	ldrb	r3, [fp, #-14]
 c102814:	e0823003 	add	r3, r2, r3
 c102818:	e1a02fa3 	lsr	r2, r3, #31
 c10281c:	e0823003 	add	r3, r2, r3
 c102820:	e1a030c3 	asr	r3, r3, #1
 c102824:	e1a00003 	mov	r0, r3
 c102828:	e15b21b8 	ldrh	r2, [fp, #-24]	; 0xffffffe8
 c10282c:	e55b300d 	ldrb	r3, [fp, #-13]
 c102830:	e0822003 	add	r2, r2, r3
 c102834:	e1a03002 	mov	r3, r2
 c102838:	e1a03103 	lsl	r3, r3, #2
 c10283c:	e0833002 	add	r3, r3, r2
 c102840:	e1a03283 	lsl	r3, r3, #5
 c102844:	e0803003 	add	r3, r0, r3
 c102848:	e59f2080 	ldr	r2, [pc, #128]	; c1028d0 <lcd_putchar+0x278>
 c10284c:	e7d23003 	ldrb	r3, [r2, r3]
 c102850:	e20320ff 	and	r2, r3, #255	; 0xff
 c102854:	e15b01b6 	ldrh	r0, [fp, #-22]	; 0xffffffea
 c102858:	e55b300e 	ldrb	r3, [fp, #-14]
 c10285c:	e0803003 	add	r3, r0, r3
 c102860:	e2033001 	and	r3, r3, #1
 c102864:	e1a03103 	lsl	r3, r3, #2
 c102868:	e3a000f0 	mov	r0, #240	; 0xf0
 c10286c:	e1a03350 	asr	r3, r0, r3
 c102870:	e20330ff 	and	r3, r3, #255	; 0xff
 c102874:	e1e03003 	mvn	r3, r3
 c102878:	e20330ff 	and	r3, r3, #255	; 0xff
 c10287c:	e0023003 	and	r3, r2, r3
 c102880:	e20330ff 	and	r3, r3, #255	; 0xff
 c102884:	e20320ff 	and	r2, r3, #255	; 0xff
 c102888:	e59f3040 	ldr	r3, [pc, #64]	; c1028d0 <lcd_putchar+0x278>
 c10288c:	e7c32001 	strb	r2, [r3, r1]
 c102890:	e55b300e 	ldrb	r3, [fp, #-14]
 c102894:	e2833001 	add	r3, r3, #1
 c102898:	e54b300e 	strb	r3, [fp, #-14]
 c10289c:	e55b300e 	ldrb	r3, [fp, #-14]
 c1028a0:	e3530007 	cmp	r3, #7
 c1028a4:	9affff7f 	bls	c1026a8 <lcd_putchar+0x50>
 c1028a8:	e55b300d 	ldrb	r3, [fp, #-13]
 c1028ac:	e2833001 	add	r3, r3, #1
 c1028b0:	e54b300d 	strb	r3, [fp, #-13]
 c1028b4:	e55b300d 	ldrb	r3, [fp, #-13]
 c1028b8:	e353000f 	cmp	r3, #15
 c1028bc:	9affff76 	bls	c10269c <lcd_putchar+0x44>
 c1028c0:	e24bd00c 	sub	sp, fp, #12
 c1028c4:	e89d6800 	ldm	sp, {fp, sp, lr}
 c1028c8:	e12fff1e 	bx	lr
 c1028cc:	0c107d18 	.word	0x0c107d18
 c1028d0:	0c108d38 	.word	0x0c108d38

0c1028d4 <lcd_puts>:
 c1028d4:	e1a0c00d 	mov	ip, sp
 c1028d8:	e92dd800 	push	{fp, ip, lr, pc}
 c1028dc:	e24cb004 	sub	fp, ip, #4
 c1028e0:	e24dd010 	sub	sp, sp, #16
 c1028e4:	e50b3018 	str	r3, [fp, #-24]	; 0xffffffe8
 c1028e8:	e14b00be 	strh	r0, [fp, #-14]
 c1028ec:	e14b11b0 	strh	r1, [fp, #-16]
 c1028f0:	e1a03002 	mov	r3, r2
 c1028f4:	e54b3011 	strb	r3, [fp, #-17]	; 0xffffffef
 c1028f8:	ea00000b 	b	c10292c <lcd_puts+0x58>
 c1028fc:	e51b3018 	ldr	r3, [fp, #-24]	; 0xffffffe8
 c102900:	e5d33000 	ldrb	r3, [r3]
 c102904:	e15b00be 	ldrh	r0, [fp, #-14]
 c102908:	e15b11b0 	ldrh	r1, [fp, #-16]
 c10290c:	e55b2011 	ldrb	r2, [fp, #-17]	; 0xffffffef
 c102910:	ebffff50 	bl	c102658 <lcd_putchar>
 c102914:	e51b3018 	ldr	r3, [fp, #-24]	; 0xffffffe8
 c102918:	e2833001 	add	r3, r3, #1
 c10291c:	e50b3018 	str	r3, [fp, #-24]	; 0xffffffe8
 c102920:	e15b30be 	ldrh	r3, [fp, #-14]
 c102924:	e2833008 	add	r3, r3, #8
 c102928:	e14b30be 	strh	r3, [fp, #-14]
 c10292c:	e51b3018 	ldr	r3, [fp, #-24]	; 0xffffffe8
 c102930:	e5d33000 	ldrb	r3, [r3]
 c102934:	e3530000 	cmp	r3, #0
 c102938:	1affffef 	bne	c1028fc <lcd_puts+0x28>
 c10293c:	e24bd00c 	sub	sp, fp, #12
 c102940:	e89d6800 	ldm	sp, {fp, sp, lr}
 c102944:	e12fff1e 	bx	lr

0c102948 <lcd_putint>:
 c102948:	e1a0c00d 	mov	ip, sp
 c10294c:	e92dd800 	push	{fp, ip, lr, pc}
 c102950:	e24cb004 	sub	fp, ip, #4
 c102954:	e24dd018 	sub	sp, sp, #24
 c102958:	e50b3020 	str	r3, [fp, #-32]	; 0xffffffe0
 c10295c:	e14b01b6 	strh	r0, [fp, #-22]	; 0xffffffea
 c102960:	e14b11b8 	strh	r1, [fp, #-24]	; 0xffffffe8
 c102964:	e1a03002 	mov	r3, r2
 c102968:	e54b3019 	strb	r3, [fp, #-25]	; 0xffffffe7
 c10296c:	e59f3148 	ldr	r3, [pc, #328]	; c102abc <lcd_putint+0x174>
 c102970:	e50b3010 	str	r3, [fp, #-16]
 c102974:	e51b3010 	ldr	r3, [fp, #-16]
 c102978:	e3a02000 	mov	r2, #0
 c10297c:	e5c32000 	strb	r2, [r3]
 c102980:	e51b3020 	ldr	r3, [fp, #-32]	; 0xffffffe0
 c102984:	e3530000 	cmp	r3, #0
 c102988:	ba00001d 	blt	c102a04 <lcd_putint+0xbc>
 c10298c:	e51b3010 	ldr	r3, [fp, #-16]
 c102990:	e2433001 	sub	r3, r3, #1
 c102994:	e50b3010 	str	r3, [fp, #-16]
 c102998:	e51b1020 	ldr	r1, [fp, #-32]	; 0xffffffe0
 c10299c:	e59f311c 	ldr	r3, [pc, #284]	; c102ac0 <lcd_putint+0x178>
 c1029a0:	e0c32391 	smull	r2, r3, r1, r3
 c1029a4:	e1a02143 	asr	r2, r3, #2
 c1029a8:	e1a03fc1 	asr	r3, r1, #31
 c1029ac:	e0632002 	rsb	r2, r3, r2
 c1029b0:	e1a03002 	mov	r3, r2
 c1029b4:	e1a03103 	lsl	r3, r3, #2
 c1029b8:	e0833002 	add	r3, r3, r2
 c1029bc:	e1a03083 	lsl	r3, r3, #1
 c1029c0:	e0632001 	rsb	r2, r3, r1
 c1029c4:	e20230ff 	and	r3, r2, #255	; 0xff
 c1029c8:	e2833030 	add	r3, r3, #48	; 0x30
 c1029cc:	e20320ff 	and	r2, r3, #255	; 0xff
 c1029d0:	e51b3010 	ldr	r3, [fp, #-16]
 c1029d4:	e5c32000 	strb	r2, [r3]
 c1029d8:	e51b3020 	ldr	r3, [fp, #-32]	; 0xffffffe0
 c1029dc:	e59f20dc 	ldr	r2, [pc, #220]	; c102ac0 <lcd_putint+0x178>
 c1029e0:	e0c21293 	smull	r1, r2, r3, r2
 c1029e4:	e1a02142 	asr	r2, r2, #2
 c1029e8:	e1a03fc3 	asr	r3, r3, #31
 c1029ec:	e0633002 	rsb	r3, r3, r2
 c1029f0:	e50b3020 	str	r3, [fp, #-32]	; 0xffffffe0
 c1029f4:	e51b3020 	ldr	r3, [fp, #-32]	; 0xffffffe0
 c1029f8:	e3530000 	cmp	r3, #0
 c1029fc:	1affffe2 	bne	c10298c <lcd_putint+0x44>
 c102a00:	ea000022 	b	c102a90 <lcd_putint+0x148>
 c102a04:	e51b3010 	ldr	r3, [fp, #-16]
 c102a08:	e2433001 	sub	r3, r3, #1
 c102a0c:	e50b3010 	str	r3, [fp, #-16]
 c102a10:	e51b1020 	ldr	r1, [fp, #-32]	; 0xffffffe0
 c102a14:	e59f30a4 	ldr	r3, [pc, #164]	; c102ac0 <lcd_putint+0x178>
 c102a18:	e0c32391 	smull	r2, r3, r1, r3
 c102a1c:	e1a02143 	asr	r2, r3, #2
 c102a20:	e1a03fc1 	asr	r3, r1, #31
 c102a24:	e0632002 	rsb	r2, r3, r2
 c102a28:	e1a03002 	mov	r3, r2
 c102a2c:	e1a03103 	lsl	r3, r3, #2
 c102a30:	e0833002 	add	r3, r3, r2
 c102a34:	e1a03083 	lsl	r3, r3, #1
 c102a38:	e0632001 	rsb	r2, r3, r1
 c102a3c:	e20230ff 	and	r3, r2, #255	; 0xff
 c102a40:	e2633030 	rsb	r3, r3, #48	; 0x30
 c102a44:	e20320ff 	and	r2, r3, #255	; 0xff
 c102a48:	e51b3010 	ldr	r3, [fp, #-16]
 c102a4c:	e5c32000 	strb	r2, [r3]
 c102a50:	e51b3020 	ldr	r3, [fp, #-32]	; 0xffffffe0
 c102a54:	e59f2064 	ldr	r2, [pc, #100]	; c102ac0 <lcd_putint+0x178>
 c102a58:	e0c21293 	smull	r1, r2, r3, r2
 c102a5c:	e1a02142 	asr	r2, r2, #2
 c102a60:	e1a03fc3 	asr	r3, r3, #31
 c102a64:	e0633002 	rsb	r3, r3, r2
 c102a68:	e50b3020 	str	r3, [fp, #-32]	; 0xffffffe0
 c102a6c:	e51b3020 	ldr	r3, [fp, #-32]	; 0xffffffe0
 c102a70:	e3530000 	cmp	r3, #0
 c102a74:	1affffe2 	bne	c102a04 <lcd_putint+0xbc>
 c102a78:	e51b3010 	ldr	r3, [fp, #-16]
 c102a7c:	e2433001 	sub	r3, r3, #1
 c102a80:	e50b3010 	str	r3, [fp, #-16]
 c102a84:	e51b3010 	ldr	r3, [fp, #-16]
 c102a88:	e3a0202d 	mov	r2, #45	; 0x2d
 c102a8c:	e5c32000 	strb	r2, [r3]
 c102a90:	e15b11b6 	ldrh	r1, [fp, #-22]	; 0xffffffea
 c102a94:	e15b21b8 	ldrh	r2, [fp, #-24]	; 0xffffffe8
 c102a98:	e55b3019 	ldrb	r3, [fp, #-25]	; 0xffffffe7
 c102a9c:	e1a00001 	mov	r0, r1
 c102aa0:	e1a01002 	mov	r1, r2
 c102aa4:	e1a02003 	mov	r2, r3
 c102aa8:	e51b3010 	ldr	r3, [fp, #-16]
 c102aac:	ebffff88 	bl	c1028d4 <lcd_puts>
 c102ab0:	e24bd00c 	sub	sp, fp, #12
 c102ab4:	e89d6800 	ldm	sp, {fp, sp, lr}
 c102ab8:	e12fff1e 	bx	lr
 c102abc:	0c11236f 	.word	0x0c11236f
 c102ac0:	66666667 	.word	0x66666667

0c102ac4 <lcd_puthex>:
 c102ac4:	e1a0c00d 	mov	ip, sp
 c102ac8:	e92dd800 	push	{fp, ip, lr, pc}
 c102acc:	e24cb004 	sub	fp, ip, #4
 c102ad0:	e24dd018 	sub	sp, sp, #24
 c102ad4:	e50b3020 	str	r3, [fp, #-32]	; 0xffffffe0
 c102ad8:	e14b01b6 	strh	r0, [fp, #-22]	; 0xffffffea
 c102adc:	e14b11b8 	strh	r1, [fp, #-24]	; 0xffffffe8
 c102ae0:	e1a03002 	mov	r3, r2
 c102ae4:	e54b3019 	strb	r3, [fp, #-25]	; 0xffffffe7
 c102ae8:	e59f30b0 	ldr	r3, [pc, #176]	; c102ba0 <lcd_puthex+0xdc>
 c102aec:	e50b3010 	str	r3, [fp, #-16]
 c102af0:	e51b3010 	ldr	r3, [fp, #-16]
 c102af4:	e3a02000 	mov	r2, #0
 c102af8:	e5c32000 	strb	r2, [r3]
 c102afc:	e51b3020 	ldr	r3, [fp, #-32]	; 0xffffffe0
 c102b00:	e20330ff 	and	r3, r3, #255	; 0xff
 c102b04:	e203300f 	and	r3, r3, #15
 c102b08:	e54b3011 	strb	r3, [fp, #-17]	; 0xffffffef
 c102b0c:	e55b3011 	ldrb	r3, [fp, #-17]	; 0xffffffef
 c102b10:	e3530009 	cmp	r3, #9
 c102b14:	8a000008 	bhi	c102b3c <lcd_puthex+0x78>
 c102b18:	e51b3010 	ldr	r3, [fp, #-16]
 c102b1c:	e2433001 	sub	r3, r3, #1
 c102b20:	e50b3010 	str	r3, [fp, #-16]
 c102b24:	e55b3011 	ldrb	r3, [fp, #-17]	; 0xffffffef
 c102b28:	e2833030 	add	r3, r3, #48	; 0x30
 c102b2c:	e20320ff 	and	r2, r3, #255	; 0xff
 c102b30:	e51b3010 	ldr	r3, [fp, #-16]
 c102b34:	e5c32000 	strb	r2, [r3]
 c102b38:	ea000007 	b	c102b5c <lcd_puthex+0x98>
 c102b3c:	e51b3010 	ldr	r3, [fp, #-16]
 c102b40:	e2433001 	sub	r3, r3, #1
 c102b44:	e50b3010 	str	r3, [fp, #-16]
 c102b48:	e55b3011 	ldrb	r3, [fp, #-17]	; 0xffffffef
 c102b4c:	e2833057 	add	r3, r3, #87	; 0x57
 c102b50:	e20320ff 	and	r2, r3, #255	; 0xff
 c102b54:	e51b3010 	ldr	r3, [fp, #-16]
 c102b58:	e5c32000 	strb	r2, [r3]
 c102b5c:	e51b3020 	ldr	r3, [fp, #-32]	; 0xffffffe0
 c102b60:	e1a03223 	lsr	r3, r3, #4
 c102b64:	e50b3020 	str	r3, [fp, #-32]	; 0xffffffe0
 c102b68:	e51b3020 	ldr	r3, [fp, #-32]	; 0xffffffe0
 c102b6c:	e3530000 	cmp	r3, #0
 c102b70:	1affffe1 	bne	c102afc <lcd_puthex+0x38>
 c102b74:	e15b11b6 	ldrh	r1, [fp, #-22]	; 0xffffffea
 c102b78:	e15b21b8 	ldrh	r2, [fp, #-24]	; 0xffffffe8
 c102b7c:	e55b3019 	ldrb	r3, [fp, #-25]	; 0xffffffe7
 c102b80:	e1a00001 	mov	r0, r1
 c102b84:	e1a01002 	mov	r1, r2
 c102b88:	e1a02003 	mov	r2, r3
 c102b8c:	e51b3010 	ldr	r3, [fp, #-16]
 c102b90:	ebffff4f 	bl	c1028d4 <lcd_puts>
 c102b94:	e24bd00c 	sub	sp, fp, #12
 c102b98:	e89d6800 	ldm	sp, {fp, sp, lr}
 c102b9c:	e12fff1e 	bx	lr
 c102ba0:	0c112360 	.word	0x0c112360

0c102ba4 <lcd_putchar_x2>:
 c102ba4:	e1a0c00d 	mov	ip, sp
 c102ba8:	e92dd800 	push	{fp, ip, lr, pc}
 c102bac:	e24cb004 	sub	fp, ip, #4
 c102bb0:	e24dd010 	sub	sp, sp, #16
 c102bb4:	e14b01b6 	strh	r0, [fp, #-22]	; 0xffffffea
 c102bb8:	e14b11b8 	strh	r1, [fp, #-24]	; 0xffffffe8
 c102bbc:	e54b2019 	strb	r2, [fp, #-25]	; 0xffffffe7
 c102bc0:	e54b301a 	strb	r3, [fp, #-26]	; 0xffffffe6
 c102bc4:	e55b301a 	ldrb	r3, [fp, #-26]	; 0xffffffe6
 c102bc8:	e1a03203 	lsl	r3, r3, #4
 c102bcc:	e1a02003 	mov	r2, r3
 c102bd0:	e59f3250 	ldr	r3, [pc, #592]	; c102e28 <lcd_putchar_x2+0x284>
 c102bd4:	e0823003 	add	r3, r2, r3
 c102bd8:	e50b3014 	str	r3, [fp, #-20]	; 0xffffffec
 c102bdc:	e3a03000 	mov	r3, #0
 c102be0:	e54b300d 	strb	r3, [fp, #-13]
 c102be4:	ea000089 	b	c102e10 <lcd_putchar_x2+0x26c>
 c102be8:	e3a03000 	mov	r3, #0
 c102bec:	e54b300e 	strb	r3, [fp, #-14]
 c102bf0:	ea000080 	b	c102df8 <lcd_putchar_x2+0x254>
 c102bf4:	e55b300d 	ldrb	r3, [fp, #-13]
 c102bf8:	e1a030a3 	lsr	r3, r3, #1
 c102bfc:	e20330ff 	and	r3, r3, #255	; 0xff
 c102c00:	e51b2014 	ldr	r2, [fp, #-20]	; 0xffffffec
 c102c04:	e0823003 	add	r3, r2, r3
 c102c08:	e5d33000 	ldrb	r3, [r3]
 c102c0c:	e1a02003 	mov	r2, r3
 c102c10:	e55b300e 	ldrb	r3, [fp, #-14]
 c102c14:	e1a030a3 	lsr	r3, r3, #1
 c102c18:	e20330ff 	and	r3, r3, #255	; 0xff
 c102c1c:	e3a01080 	mov	r1, #128	; 0x80
 c102c20:	e1a03351 	asr	r3, r1, r3
 c102c24:	e0023003 	and	r3, r2, r3
 c102c28:	e3530000 	cmp	r3, #0
 c102c2c:	0a00003e 	beq	c102d2c <lcd_putchar_x2+0x188>
 c102c30:	e15b21b6 	ldrh	r2, [fp, #-22]	; 0xffffffea
 c102c34:	e55b300e 	ldrb	r3, [fp, #-14]
 c102c38:	e0823003 	add	r3, r2, r3
 c102c3c:	e1a02fa3 	lsr	r2, r3, #31
 c102c40:	e0823003 	add	r3, r2, r3
 c102c44:	e1a030c3 	asr	r3, r3, #1
 c102c48:	e1a01003 	mov	r1, r3
 c102c4c:	e15b21b8 	ldrh	r2, [fp, #-24]	; 0xffffffe8
 c102c50:	e55b300d 	ldrb	r3, [fp, #-13]
 c102c54:	e0822003 	add	r2, r2, r3
 c102c58:	e1a03002 	mov	r3, r2
 c102c5c:	e1a03103 	lsl	r3, r3, #2
 c102c60:	e0833002 	add	r3, r3, r2
 c102c64:	e1a03283 	lsl	r3, r3, #5
 c102c68:	e0811003 	add	r1, r1, r3
 c102c6c:	e15b21b6 	ldrh	r2, [fp, #-22]	; 0xffffffea
 c102c70:	e55b300e 	ldrb	r3, [fp, #-14]
 c102c74:	e0823003 	add	r3, r2, r3
 c102c78:	e1a02fa3 	lsr	r2, r3, #31
 c102c7c:	e0823003 	add	r3, r2, r3
 c102c80:	e1a030c3 	asr	r3, r3, #1
 c102c84:	e1a00003 	mov	r0, r3
 c102c88:	e15b21b8 	ldrh	r2, [fp, #-24]	; 0xffffffe8
 c102c8c:	e55b300d 	ldrb	r3, [fp, #-13]
 c102c90:	e0822003 	add	r2, r2, r3
 c102c94:	e1a03002 	mov	r3, r2
 c102c98:	e1a03103 	lsl	r3, r3, #2
 c102c9c:	e0833002 	add	r3, r3, r2
 c102ca0:	e1a03283 	lsl	r3, r3, #5
 c102ca4:	e0803003 	add	r3, r0, r3
 c102ca8:	e59f217c 	ldr	r2, [pc, #380]	; c102e2c <lcd_putchar_x2+0x288>
 c102cac:	e7d23003 	ldrb	r3, [r2, r3]
 c102cb0:	e20320ff 	and	r2, r3, #255	; 0xff
 c102cb4:	e15b01b6 	ldrh	r0, [fp, #-22]	; 0xffffffea
 c102cb8:	e55b300e 	ldrb	r3, [fp, #-14]
 c102cbc:	e0803003 	add	r3, r0, r3
 c102cc0:	e2033001 	and	r3, r3, #1
 c102cc4:	e1a03103 	lsl	r3, r3, #2
 c102cc8:	e3a000f0 	mov	r0, #240	; 0xf0
 c102ccc:	e1a03350 	asr	r3, r0, r3
 c102cd0:	e20330ff 	and	r3, r3, #255	; 0xff
 c102cd4:	e1e03003 	mvn	r3, r3
 c102cd8:	e20330ff 	and	r3, r3, #255	; 0xff
 c102cdc:	e0023003 	and	r3, r2, r3
 c102ce0:	e20320ff 	and	r2, r3, #255	; 0xff
 c102ce4:	e55b0019 	ldrb	r0, [fp, #-25]	; 0xffffffe7
 c102ce8:	e15bc1b6 	ldrh	ip, [fp, #-22]	; 0xffffffea
 c102cec:	e55b300e 	ldrb	r3, [fp, #-14]
 c102cf0:	e08c3003 	add	r3, ip, r3
 c102cf4:	e2033001 	and	r3, r3, #1
 c102cf8:	e3530000 	cmp	r3, #0
 c102cfc:	1a000001 	bne	c102d08 <lcd_putchar_x2+0x164>
 c102d00:	e3a03004 	mov	r3, #4
 c102d04:	ea000000 	b	c102d0c <lcd_putchar_x2+0x168>
 c102d08:	e3a03000 	mov	r3, #0
 c102d0c:	e1a03310 	lsl	r3, r0, r3
 c102d10:	e20330ff 	and	r3, r3, #255	; 0xff
 c102d14:	e1823003 	orr	r3, r2, r3
 c102d18:	e20330ff 	and	r3, r3, #255	; 0xff
 c102d1c:	e20320ff 	and	r2, r3, #255	; 0xff
 c102d20:	e59f3104 	ldr	r3, [pc, #260]	; c102e2c <lcd_putchar_x2+0x288>
 c102d24:	e7c32001 	strb	r2, [r3, r1]
 c102d28:	ea00002f 	b	c102dec <lcd_putchar_x2+0x248>
 c102d2c:	e15b21b6 	ldrh	r2, [fp, #-22]	; 0xffffffea
 c102d30:	e55b300e 	ldrb	r3, [fp, #-14]
 c102d34:	e0823003 	add	r3, r2, r3
 c102d38:	e1a02fa3 	lsr	r2, r3, #31
 c102d3c:	e0823003 	add	r3, r2, r3
 c102d40:	e1a030c3 	asr	r3, r3, #1
 c102d44:	e1a01003 	mov	r1, r3
 c102d48:	e15b21b8 	ldrh	r2, [fp, #-24]	; 0xffffffe8
 c102d4c:	e55b300d 	ldrb	r3, [fp, #-13]
 c102d50:	e0822003 	add	r2, r2, r3
 c102d54:	e1a03002 	mov	r3, r2
 c102d58:	e1a03103 	lsl	r3, r3, #2
 c102d5c:	e0833002 	add	r3, r3, r2
 c102d60:	e1a03283 	lsl	r3, r3, #5
 c102d64:	e0811003 	add	r1, r1, r3
 c102d68:	e15b21b6 	ldrh	r2, [fp, #-22]	; 0xffffffea
 c102d6c:	e55b300e 	ldrb	r3, [fp, #-14]
 c102d70:	e0823003 	add	r3, r2, r3
 c102d74:	e1a02fa3 	lsr	r2, r3, #31
 c102d78:	e0823003 	add	r3, r2, r3
 c102d7c:	e1a030c3 	asr	r3, r3, #1
 c102d80:	e1a00003 	mov	r0, r3
 c102d84:	e15b21b8 	ldrh	r2, [fp, #-24]	; 0xffffffe8
 c102d88:	e55b300d 	ldrb	r3, [fp, #-13]
 c102d8c:	e0822003 	add	r2, r2, r3
 c102d90:	e1a03002 	mov	r3, r2
 c102d94:	e1a03103 	lsl	r3, r3, #2
 c102d98:	e0833002 	add	r3, r3, r2
 c102d9c:	e1a03283 	lsl	r3, r3, #5
 c102da0:	e0803003 	add	r3, r0, r3
 c102da4:	e59f2080 	ldr	r2, [pc, #128]	; c102e2c <lcd_putchar_x2+0x288>
 c102da8:	e7d23003 	ldrb	r3, [r2, r3]
 c102dac:	e20320ff 	and	r2, r3, #255	; 0xff
 c102db0:	e15b01b6 	ldrh	r0, [fp, #-22]	; 0xffffffea
 c102db4:	e55b300e 	ldrb	r3, [fp, #-14]
 c102db8:	e0803003 	add	r3, r0, r3
 c102dbc:	e2033001 	and	r3, r3, #1
 c102dc0:	e1a03103 	lsl	r3, r3, #2
 c102dc4:	e3a000f0 	mov	r0, #240	; 0xf0
 c102dc8:	e1a03350 	asr	r3, r0, r3
 c102dcc:	e20330ff 	and	r3, r3, #255	; 0xff
 c102dd0:	e1e03003 	mvn	r3, r3
 c102dd4:	e20330ff 	and	r3, r3, #255	; 0xff
 c102dd8:	e0023003 	and	r3, r2, r3
 c102ddc:	e20330ff 	and	r3, r3, #255	; 0xff
 c102de0:	e20320ff 	and	r2, r3, #255	; 0xff
 c102de4:	e59f3040 	ldr	r3, [pc, #64]	; c102e2c <lcd_putchar_x2+0x288>
 c102de8:	e7c32001 	strb	r2, [r3, r1]
 c102dec:	e55b300e 	ldrb	r3, [fp, #-14]
 c102df0:	e2833001 	add	r3, r3, #1
 c102df4:	e54b300e 	strb	r3, [fp, #-14]
 c102df8:	e55b300e 	ldrb	r3, [fp, #-14]
 c102dfc:	e353000f 	cmp	r3, #15
 c102e00:	9affff7b 	bls	c102bf4 <lcd_putchar_x2+0x50>
 c102e04:	e55b300d 	ldrb	r3, [fp, #-13]
 c102e08:	e2833001 	add	r3, r3, #1
 c102e0c:	e54b300d 	strb	r3, [fp, #-13]
 c102e10:	e55b300d 	ldrb	r3, [fp, #-13]
 c102e14:	e353001f 	cmp	r3, #31
 c102e18:	9affff72 	bls	c102be8 <lcd_putchar_x2+0x44>
 c102e1c:	e24bd00c 	sub	sp, fp, #12
 c102e20:	e89d6800 	ldm	sp, {fp, sp, lr}
 c102e24:	e12fff1e 	bx	lr
 c102e28:	0c107d18 	.word	0x0c107d18
 c102e2c:	0c108d38 	.word	0x0c108d38

0c102e30 <lcd_puts_x2>:
 c102e30:	e1a0c00d 	mov	ip, sp
 c102e34:	e92dd800 	push	{fp, ip, lr, pc}
 c102e38:	e24cb004 	sub	fp, ip, #4
 c102e3c:	e24dd010 	sub	sp, sp, #16
 c102e40:	e50b3018 	str	r3, [fp, #-24]	; 0xffffffe8
 c102e44:	e14b00be 	strh	r0, [fp, #-14]
 c102e48:	e14b11b0 	strh	r1, [fp, #-16]
 c102e4c:	e1a03002 	mov	r3, r2
 c102e50:	e54b3011 	strb	r3, [fp, #-17]	; 0xffffffef
 c102e54:	ea00000b 	b	c102e88 <lcd_puts_x2+0x58>
 c102e58:	e51b3018 	ldr	r3, [fp, #-24]	; 0xffffffe8
 c102e5c:	e5d33000 	ldrb	r3, [r3]
 c102e60:	e15b00be 	ldrh	r0, [fp, #-14]
 c102e64:	e15b11b0 	ldrh	r1, [fp, #-16]
 c102e68:	e55b2011 	ldrb	r2, [fp, #-17]	; 0xffffffef
 c102e6c:	ebffff4c 	bl	c102ba4 <lcd_putchar_x2>
 c102e70:	e51b3018 	ldr	r3, [fp, #-24]	; 0xffffffe8
 c102e74:	e2833001 	add	r3, r3, #1
 c102e78:	e50b3018 	str	r3, [fp, #-24]	; 0xffffffe8
 c102e7c:	e15b30be 	ldrh	r3, [fp, #-14]
 c102e80:	e2833010 	add	r3, r3, #16
 c102e84:	e14b30be 	strh	r3, [fp, #-14]
 c102e88:	e51b3018 	ldr	r3, [fp, #-24]	; 0xffffffe8
 c102e8c:	e5d33000 	ldrb	r3, [r3]
 c102e90:	e3530000 	cmp	r3, #0
 c102e94:	1affffef 	bne	c102e58 <lcd_puts_x2+0x28>
 c102e98:	e24bd00c 	sub	sp, fp, #12
 c102e9c:	e89d6800 	ldm	sp, {fp, sp, lr}
 c102ea0:	e12fff1e 	bx	lr

0c102ea4 <lcd_putint_x2>:
 c102ea4:	e1a0c00d 	mov	ip, sp
 c102ea8:	e92dd800 	push	{fp, ip, lr, pc}
 c102eac:	e24cb004 	sub	fp, ip, #4
 c102eb0:	e24dd018 	sub	sp, sp, #24
 c102eb4:	e50b3020 	str	r3, [fp, #-32]	; 0xffffffe0
 c102eb8:	e14b01b6 	strh	r0, [fp, #-22]	; 0xffffffea
 c102ebc:	e14b11b8 	strh	r1, [fp, #-24]	; 0xffffffe8
 c102ec0:	e1a03002 	mov	r3, r2
 c102ec4:	e54b3019 	strb	r3, [fp, #-25]	; 0xffffffe7
 c102ec8:	e59f3148 	ldr	r3, [pc, #328]	; c103018 <lcd_putint_x2+0x174>
 c102ecc:	e50b3010 	str	r3, [fp, #-16]
 c102ed0:	e51b3010 	ldr	r3, [fp, #-16]
 c102ed4:	e3a02000 	mov	r2, #0
 c102ed8:	e5c32000 	strb	r2, [r3]
 c102edc:	e51b3020 	ldr	r3, [fp, #-32]	; 0xffffffe0
 c102ee0:	e3530000 	cmp	r3, #0
 c102ee4:	ba00001d 	blt	c102f60 <lcd_putint_x2+0xbc>
 c102ee8:	e51b3010 	ldr	r3, [fp, #-16]
 c102eec:	e2433001 	sub	r3, r3, #1
 c102ef0:	e50b3010 	str	r3, [fp, #-16]
 c102ef4:	e51b1020 	ldr	r1, [fp, #-32]	; 0xffffffe0
 c102ef8:	e59f311c 	ldr	r3, [pc, #284]	; c10301c <lcd_putint_x2+0x178>
 c102efc:	e0c32391 	smull	r2, r3, r1, r3
 c102f00:	e1a02143 	asr	r2, r3, #2
 c102f04:	e1a03fc1 	asr	r3, r1, #31
 c102f08:	e0632002 	rsb	r2, r3, r2
 c102f0c:	e1a03002 	mov	r3, r2
 c102f10:	e1a03103 	lsl	r3, r3, #2
 c102f14:	e0833002 	add	r3, r3, r2
 c102f18:	e1a03083 	lsl	r3, r3, #1
 c102f1c:	e0632001 	rsb	r2, r3, r1
 c102f20:	e20230ff 	and	r3, r2, #255	; 0xff
 c102f24:	e2833030 	add	r3, r3, #48	; 0x30
 c102f28:	e20320ff 	and	r2, r3, #255	; 0xff
 c102f2c:	e51b3010 	ldr	r3, [fp, #-16]
 c102f30:	e5c32000 	strb	r2, [r3]
 c102f34:	e51b3020 	ldr	r3, [fp, #-32]	; 0xffffffe0
 c102f38:	e59f20dc 	ldr	r2, [pc, #220]	; c10301c <lcd_putint_x2+0x178>
 c102f3c:	e0c21293 	smull	r1, r2, r3, r2
 c102f40:	e1a02142 	asr	r2, r2, #2
 c102f44:	e1a03fc3 	asr	r3, r3, #31
 c102f48:	e0633002 	rsb	r3, r3, r2
 c102f4c:	e50b3020 	str	r3, [fp, #-32]	; 0xffffffe0
 c102f50:	e51b3020 	ldr	r3, [fp, #-32]	; 0xffffffe0
 c102f54:	e3530000 	cmp	r3, #0
 c102f58:	1affffe2 	bne	c102ee8 <lcd_putint_x2+0x44>
 c102f5c:	ea000022 	b	c102fec <lcd_putint_x2+0x148>
 c102f60:	e51b3010 	ldr	r3, [fp, #-16]
 c102f64:	e2433001 	sub	r3, r3, #1
 c102f68:	e50b3010 	str	r3, [fp, #-16]
 c102f6c:	e51b1020 	ldr	r1, [fp, #-32]	; 0xffffffe0
 c102f70:	e59f30a4 	ldr	r3, [pc, #164]	; c10301c <lcd_putint_x2+0x178>
 c102f74:	e0c32391 	smull	r2, r3, r1, r3
 c102f78:	e1a02143 	asr	r2, r3, #2
 c102f7c:	e1a03fc1 	asr	r3, r1, #31
 c102f80:	e0632002 	rsb	r2, r3, r2
 c102f84:	e1a03002 	mov	r3, r2
 c102f88:	e1a03103 	lsl	r3, r3, #2
 c102f8c:	e0833002 	add	r3, r3, r2
 c102f90:	e1a03083 	lsl	r3, r3, #1
 c102f94:	e0632001 	rsb	r2, r3, r1
 c102f98:	e20230ff 	and	r3, r2, #255	; 0xff
 c102f9c:	e2633030 	rsb	r3, r3, #48	; 0x30
 c102fa0:	e20320ff 	and	r2, r3, #255	; 0xff
 c102fa4:	e51b3010 	ldr	r3, [fp, #-16]
 c102fa8:	e5c32000 	strb	r2, [r3]
 c102fac:	e51b3020 	ldr	r3, [fp, #-32]	; 0xffffffe0
 c102fb0:	e59f2064 	ldr	r2, [pc, #100]	; c10301c <lcd_putint_x2+0x178>
 c102fb4:	e0c21293 	smull	r1, r2, r3, r2
 c102fb8:	e1a02142 	asr	r2, r2, #2
 c102fbc:	e1a03fc3 	asr	r3, r3, #31
 c102fc0:	e0633002 	rsb	r3, r3, r2
 c102fc4:	e50b3020 	str	r3, [fp, #-32]	; 0xffffffe0
 c102fc8:	e51b3020 	ldr	r3, [fp, #-32]	; 0xffffffe0
 c102fcc:	e3530000 	cmp	r3, #0
 c102fd0:	1affffe2 	bne	c102f60 <lcd_putint_x2+0xbc>
 c102fd4:	e51b3010 	ldr	r3, [fp, #-16]
 c102fd8:	e2433001 	sub	r3, r3, #1
 c102fdc:	e50b3010 	str	r3, [fp, #-16]
 c102fe0:	e51b3010 	ldr	r3, [fp, #-16]
 c102fe4:	e3a0202d 	mov	r2, #45	; 0x2d
 c102fe8:	e5c32000 	strb	r2, [r3]
 c102fec:	e15b11b6 	ldrh	r1, [fp, #-22]	; 0xffffffea
 c102ff0:	e15b21b8 	ldrh	r2, [fp, #-24]	; 0xffffffe8
 c102ff4:	e55b3019 	ldrb	r3, [fp, #-25]	; 0xffffffe7
 c102ff8:	e1a00001 	mov	r0, r1
 c102ffc:	e1a01002 	mov	r1, r2
 c103000:	e1a02003 	mov	r2, r3
 c103004:	e51b3010 	ldr	r3, [fp, #-16]
 c103008:	ebffff88 	bl	c102e30 <lcd_puts_x2>
 c10300c:	e24bd00c 	sub	sp, fp, #12
 c103010:	e89d6800 	ldm	sp, {fp, sp, lr}
 c103014:	e12fff1e 	bx	lr
 c103018:	0c112357 	.word	0x0c112357
 c10301c:	66666667 	.word	0x66666667

0c103020 <lcd_puthex_x2>:
 c103020:	e1a0c00d 	mov	ip, sp
 c103024:	e92dd800 	push	{fp, ip, lr, pc}
 c103028:	e24cb004 	sub	fp, ip, #4
 c10302c:	e24dd018 	sub	sp, sp, #24
 c103030:	e50b3020 	str	r3, [fp, #-32]	; 0xffffffe0
 c103034:	e14b01b6 	strh	r0, [fp, #-22]	; 0xffffffea
 c103038:	e14b11b8 	strh	r1, [fp, #-24]	; 0xffffffe8
 c10303c:	e1a03002 	mov	r3, r2
 c103040:	e54b3019 	strb	r3, [fp, #-25]	; 0xffffffe7
 c103044:	e59f30b0 	ldr	r3, [pc, #176]	; c1030fc <lcd_puthex_x2+0xdc>
 c103048:	e50b3010 	str	r3, [fp, #-16]
 c10304c:	e51b3010 	ldr	r3, [fp, #-16]
 c103050:	e3a02000 	mov	r2, #0
 c103054:	e5c32000 	strb	r2, [r3]
 c103058:	e51b3020 	ldr	r3, [fp, #-32]	; 0xffffffe0
 c10305c:	e20330ff 	and	r3, r3, #255	; 0xff
 c103060:	e203300f 	and	r3, r3, #15
 c103064:	e54b3011 	strb	r3, [fp, #-17]	; 0xffffffef
 c103068:	e55b3011 	ldrb	r3, [fp, #-17]	; 0xffffffef
 c10306c:	e3530009 	cmp	r3, #9
 c103070:	8a000008 	bhi	c103098 <lcd_puthex_x2+0x78>
 c103074:	e51b3010 	ldr	r3, [fp, #-16]
 c103078:	e2433001 	sub	r3, r3, #1
 c10307c:	e50b3010 	str	r3, [fp, #-16]
 c103080:	e55b3011 	ldrb	r3, [fp, #-17]	; 0xffffffef
 c103084:	e2833030 	add	r3, r3, #48	; 0x30
 c103088:	e20320ff 	and	r2, r3, #255	; 0xff
 c10308c:	e51b3010 	ldr	r3, [fp, #-16]
 c103090:	e5c32000 	strb	r2, [r3]
 c103094:	ea000007 	b	c1030b8 <lcd_puthex_x2+0x98>
 c103098:	e51b3010 	ldr	r3, [fp, #-16]
 c10309c:	e2433001 	sub	r3, r3, #1
 c1030a0:	e50b3010 	str	r3, [fp, #-16]
 c1030a4:	e55b3011 	ldrb	r3, [fp, #-17]	; 0xffffffef
 c1030a8:	e2833057 	add	r3, r3, #87	; 0x57
 c1030ac:	e20320ff 	and	r2, r3, #255	; 0xff
 c1030b0:	e51b3010 	ldr	r3, [fp, #-16]
 c1030b4:	e5c32000 	strb	r2, [r3]
 c1030b8:	e51b3020 	ldr	r3, [fp, #-32]	; 0xffffffe0
 c1030bc:	e1a03223 	lsr	r3, r3, #4
 c1030c0:	e50b3020 	str	r3, [fp, #-32]	; 0xffffffe0
 c1030c4:	e51b3020 	ldr	r3, [fp, #-32]	; 0xffffffe0
 c1030c8:	e3530000 	cmp	r3, #0
 c1030cc:	1affffe1 	bne	c103058 <lcd_puthex_x2+0x38>
 c1030d0:	e15b11b6 	ldrh	r1, [fp, #-22]	; 0xffffffea
 c1030d4:	e15b21b8 	ldrh	r2, [fp, #-24]	; 0xffffffe8
 c1030d8:	e55b3019 	ldrb	r3, [fp, #-25]	; 0xffffffe7
 c1030dc:	e1a00001 	mov	r0, r1
 c1030e0:	e1a01002 	mov	r1, r2
 c1030e4:	e1a02003 	mov	r2, r3
 c1030e8:	e51b3010 	ldr	r3, [fp, #-16]
 c1030ec:	ebffff4f 	bl	c102e30 <lcd_puts_x2>
 c1030f0:	e24bd00c 	sub	sp, fp, #12
 c1030f4:	e89d6800 	ldm	sp, {fp, sp, lr}
 c1030f8:	e12fff1e 	bx	lr
 c1030fc:	0c112348 	.word	0x0c112348

0c103100 <lcd_putWallpaper>:
 c103100:	e1a0c00d 	mov	ip, sp
 c103104:	e92dd800 	push	{fp, ip, lr, pc}
 c103108:	e24cb004 	sub	fp, ip, #4
 c10310c:	e24dd018 	sub	sp, sp, #24
 c103110:	e50b0020 	str	r0, [fp, #-32]	; 0xffffffe0
 c103114:	e51b3020 	ldr	r3, [fp, #-32]	; 0xffffffe0
 c103118:	e283300a 	add	r3, r3, #10
 c10311c:	e5d33000 	ldrb	r3, [r3]
 c103120:	e1a02003 	mov	r2, r3
 c103124:	e51b3020 	ldr	r3, [fp, #-32]	; 0xffffffe0
 c103128:	e283300b 	add	r3, r3, #11
 c10312c:	e5d33000 	ldrb	r3, [r3]
 c103130:	e1a03403 	lsl	r3, r3, #8
 c103134:	e0822003 	add	r2, r2, r3
 c103138:	e51b3020 	ldr	r3, [fp, #-32]	; 0xffffffe0
 c10313c:	e283300c 	add	r3, r3, #12
 c103140:	e5d33000 	ldrb	r3, [r3]
 c103144:	e1a03803 	lsl	r3, r3, #16
 c103148:	e0822003 	add	r2, r2, r3
 c10314c:	e51b3020 	ldr	r3, [fp, #-32]	; 0xffffffe0
 c103150:	e283300d 	add	r3, r3, #13
 c103154:	e5d33000 	ldrb	r3, [r3]
 c103158:	e1a03c03 	lsl	r3, r3, #24
 c10315c:	e0823003 	add	r3, r2, r3
 c103160:	e50b3018 	str	r3, [fp, #-24]	; 0xffffffe8
 c103164:	e51b2020 	ldr	r2, [fp, #-32]	; 0xffffffe0
 c103168:	e51b3018 	ldr	r3, [fp, #-24]	; 0xffffffe8
 c10316c:	e0823003 	add	r3, r2, r3
 c103170:	e50b3020 	str	r3, [fp, #-32]	; 0xffffffe0
 c103174:	e3a03000 	mov	r3, #0
 c103178:	e14b31b0 	strh	r3, [fp, #-16]
 c10317c:	e3a030ef 	mov	r3, #239	; 0xef
 c103180:	e14b31b2 	strh	r3, [fp, #-18]	; 0xffffffee
 c103184:	ea00002d 	b	c103240 <lcd_putWallpaper+0x140>
 c103188:	e15b21b2 	ldrh	r2, [fp, #-18]	; 0xffffffee
 c10318c:	e1a03002 	mov	r3, r2
 c103190:	e1a03103 	lsl	r3, r3, #2
 c103194:	e0833002 	add	r3, r3, r2
 c103198:	e1a03303 	lsl	r3, r3, #6
 c10319c:	e1a02fa3 	lsr	r2, r3, #31
 c1031a0:	e0823003 	add	r3, r2, r3
 c1031a4:	e1a030c3 	asr	r3, r3, #1
 c1031a8:	e14b31ba 	strh	r3, [fp, #-26]	; 0xffffffe6
 c1031ac:	e15b21b0 	ldrh	r2, [fp, #-16]
 c1031b0:	e1a03002 	mov	r3, r2
 c1031b4:	e1a03103 	lsl	r3, r3, #2
 c1031b8:	e0833002 	add	r3, r3, r2
 c1031bc:	e1a03303 	lsl	r3, r3, #6
 c1031c0:	e1a02fa3 	lsr	r2, r3, #31
 c1031c4:	e0823003 	add	r3, r2, r3
 c1031c8:	e1a030c3 	asr	r3, r3, #1
 c1031cc:	e14b31bc 	strh	r3, [fp, #-28]	; 0xffffffe4
 c1031d0:	e3a03000 	mov	r3, #0
 c1031d4:	e14b30be 	strh	r3, [fp, #-14]
 c1031d8:	ea00000f 	b	c10321c <lcd_putWallpaper+0x11c>
 c1031dc:	e15b21ba 	ldrh	r2, [fp, #-26]	; 0xffffffe6
 c1031e0:	e15b30be 	ldrh	r3, [fp, #-14]
 c1031e4:	e0823003 	add	r3, r2, r3
 c1031e8:	e15b11bc 	ldrh	r1, [fp, #-28]	; 0xffffffe4
 c1031ec:	e15b20be 	ldrh	r2, [fp, #-14]
 c1031f0:	e0812002 	add	r2, r1, r2
 c1031f4:	e51b1020 	ldr	r1, [fp, #-32]	; 0xffffffe0
 c1031f8:	e0812002 	add	r2, r1, r2
 c1031fc:	e5d22000 	ldrb	r2, [r2]
 c103200:	e1e02002 	mvn	r2, r2
 c103204:	e20210ff 	and	r1, r2, #255	; 0xff
 c103208:	e59f2048 	ldr	r2, [pc, #72]	; c103258 <lcd_putWallpaper+0x158>
 c10320c:	e7c21003 	strb	r1, [r2, r3]
 c103210:	e15b30be 	ldrh	r3, [fp, #-14]
 c103214:	e2833001 	add	r3, r3, #1
 c103218:	e14b30be 	strh	r3, [fp, #-14]
 c10321c:	e15b30be 	ldrh	r3, [fp, #-14]
 c103220:	e353009f 	cmp	r3, #159	; 0x9f
 c103224:	9affffec 	bls	c1031dc <lcd_putWallpaper+0xdc>
 c103228:	e15b31b0 	ldrh	r3, [fp, #-16]
 c10322c:	e2833001 	add	r3, r3, #1
 c103230:	e14b31b0 	strh	r3, [fp, #-16]
 c103234:	e15b31b2 	ldrh	r3, [fp, #-18]	; 0xffffffee
 c103238:	e2433001 	sub	r3, r3, #1
 c10323c:	e14b31b2 	strh	r3, [fp, #-18]	; 0xffffffee
 c103240:	e15b31b0 	ldrh	r3, [fp, #-16]
 c103244:	e35300ef 	cmp	r3, #239	; 0xef
 c103248:	9affffce 	bls	c103188 <lcd_putWallpaper+0x88>
 c10324c:	e24bd00c 	sub	sp, fp, #12
 c103250:	e89d6800 	ldm	sp, {fp, sp, lr}
 c103254:	e12fff1e 	bx	lr
 c103258:	0c108d38 	.word	0x0c108d38

0c10325c <pbs_init>:
 c10325c:	e1a0c00d 	mov	ip, sp
 c103260:	e92dd800 	push	{fp, ip, lr, pc}
 c103264:	e24cb004 	sub	fp, ip, #4
 c103268:	e3a0000a 	mov	r0, #10
 c10326c:	eb0000f1 	bl	c103638 <power_on>
 c103270:	e59f3048 	ldr	r3, [pc, #72]	; c1032c0 <pbs_init+0x64>
 c103274:	e59f2044 	ldr	r2, [pc, #68]	; c1032c0 <pbs_init+0x64>
 c103278:	e5922000 	ldr	r2, [r2]
 c10327c:	e3822a0f 	orr	r2, r2, #61440	; 0xf000
 c103280:	e5832000 	str	r2, [r3]
 c103284:	e59f3038 	ldr	r3, [pc, #56]	; c1032c4 <pbs_init+0x68>
 c103288:	e59f2034 	ldr	r2, [pc, #52]	; c1032c4 <pbs_init+0x68>
 c10328c:	e5922000 	ldr	r2, [r2]
 c103290:	e3c220c0 	bic	r2, r2, #192	; 0xc0
 c103294:	e5832000 	str	r2, [r3]
 c103298:	e59f3028 	ldr	r3, [pc, #40]	; c1032c8 <pbs_init+0x6c>
 c10329c:	e59f2024 	ldr	r2, [pc, #36]	; c1032c8 <pbs_init+0x6c>
 c1032a0:	e5922000 	ldr	r2, [r2]
 c1032a4:	e3c224ff 	bic	r2, r2, #-16777216	; 0xff000000
 c1032a8:	e3822422 	orr	r2, r2, #570425344	; 0x22000000
 c1032ac:	e5832000 	str	r2, [r3]
 c1032b0:	eb0007a8 	bl	c105158 <timers_init>
 c1032b4:	e24bd00c 	sub	sp, fp, #12
 c1032b8:	e89d6800 	ldm	sp, {fp, sp, lr}
 c1032bc:	e12fff1e 	bx	lr
 c1032c0:	01d20040 	.word	0x01d20040
 c1032c4:	01d20048 	.word	0x01d20048
 c1032c8:	01d20050 	.word	0x01d20050

0c1032cc <pb_scan>:
 c1032cc:	e1a0c00d 	mov	ip, sp
 c1032d0:	e92dd800 	push	{fp, ip, lr, pc}
 c1032d4:	e24cb004 	sub	fp, ip, #4
 c1032d8:	e59f3044 	ldr	r3, [pc, #68]	; c103324 <pb_scan+0x58>
 c1032dc:	e5933000 	ldr	r3, [r3]
 c1032e0:	e2033040 	and	r3, r3, #64	; 0x40
 c1032e4:	e3530000 	cmp	r3, #0
 c1032e8:	1a000001 	bne	c1032f4 <pb_scan+0x28>
 c1032ec:	e3a03040 	mov	r3, #64	; 0x40
 c1032f0:	ea000007 	b	c103314 <pb_scan+0x48>
 c1032f4:	e59f3028 	ldr	r3, [pc, #40]	; c103324 <pb_scan+0x58>
 c1032f8:	e5933000 	ldr	r3, [r3]
 c1032fc:	e2033080 	and	r3, r3, #128	; 0x80
 c103300:	e3530000 	cmp	r3, #0
 c103304:	1a000001 	bne	c103310 <pb_scan+0x44>
 c103308:	e3a03080 	mov	r3, #128	; 0x80
 c10330c:	ea000000 	b	c103314 <pb_scan+0x48>
 c103310:	e3a030ff 	mov	r3, #255	; 0xff
 c103314:	e1a00003 	mov	r0, r3
 c103318:	e24bd00c 	sub	sp, fp, #12
 c10331c:	e89d6800 	ldm	sp, {fp, sp, lr}
 c103320:	e12fff1e 	bx	lr
 c103324:	01d20044 	.word	0x01d20044

0c103328 <pb_pressed>:
 c103328:	e1a0c00d 	mov	ip, sp
 c10332c:	e92dd800 	push	{fp, ip, lr, pc}
 c103330:	e24cb004 	sub	fp, ip, #4
 c103334:	e59f3040 	ldr	r3, [pc, #64]	; c10337c <pb_pressed+0x54>
 c103338:	e5933000 	ldr	r3, [r3]
 c10333c:	e2033080 	and	r3, r3, #128	; 0x80
 c103340:	e3530000 	cmp	r3, #0
 c103344:	0a000004 	beq	c10335c <pb_pressed+0x34>
 c103348:	e59f302c 	ldr	r3, [pc, #44]	; c10337c <pb_pressed+0x54>
 c10334c:	e5933000 	ldr	r3, [r3]
 c103350:	e2033040 	and	r3, r3, #64	; 0x40
 c103354:	e3530000 	cmp	r3, #0
 c103358:	1a000001 	bne	c103364 <pb_pressed+0x3c>
 c10335c:	e3a03001 	mov	r3, #1
 c103360:	ea000000 	b	c103368 <pb_pressed+0x40>
 c103364:	e3a03000 	mov	r3, #0
 c103368:	e20330ff 	and	r3, r3, #255	; 0xff
 c10336c:	e1a00003 	mov	r0, r3
 c103370:	e24bd00c 	sub	sp, fp, #12
 c103374:	e89d6800 	ldm	sp, {fp, sp, lr}
 c103378:	e12fff1e 	bx	lr
 c10337c:	01d20044 	.word	0x01d20044

0c103380 <pb_getchar>:
 c103380:	e1a0c00d 	mov	ip, sp
 c103384:	e92dd800 	push	{fp, ip, lr, pc}
 c103388:	e24cb004 	sub	fp, ip, #4
 c10338c:	e24dd008 	sub	sp, sp, #8
 c103390:	e1a00000 	nop			; (mov r0, r0)
 c103394:	e59f3054 	ldr	r3, [pc, #84]	; c1033f0 <pb_getchar+0x70>
 c103398:	e5933000 	ldr	r3, [r3]
 c10339c:	e20330c0 	and	r3, r3, #192	; 0xc0
 c1033a0:	e35300c0 	cmp	r3, #192	; 0xc0
 c1033a4:	0afffffa 	beq	c103394 <pb_getchar+0x14>
 c1033a8:	e3a0001e 	mov	r0, #30
 c1033ac:	eb00081b 	bl	c105420 <sw_delay_ms>
 c1033b0:	ebffffc5 	bl	c1032cc <pb_scan>
 c1033b4:	e1a03000 	mov	r3, r0
 c1033b8:	e54b300d 	strb	r3, [fp, #-13]
 c1033bc:	e1a00000 	nop			; (mov r0, r0)
 c1033c0:	e59f3028 	ldr	r3, [pc, #40]	; c1033f0 <pb_getchar+0x70>
 c1033c4:	e5933000 	ldr	r3, [r3]
 c1033c8:	e20330c0 	and	r3, r3, #192	; 0xc0
 c1033cc:	e35300c0 	cmp	r3, #192	; 0xc0
 c1033d0:	1afffffa 	bne	c1033c0 <pb_getchar+0x40>
 c1033d4:	e3a00064 	mov	r0, #100	; 0x64
 c1033d8:	eb000810 	bl	c105420 <sw_delay_ms>
 c1033dc:	e55b300d 	ldrb	r3, [fp, #-13]
 c1033e0:	e1a00003 	mov	r0, r3
 c1033e4:	e24bd00c 	sub	sp, fp, #12
 c1033e8:	e89d6800 	ldm	sp, {fp, sp, lr}
 c1033ec:	e12fff1e 	bx	lr
 c1033f0:	01d20044 	.word	0x01d20044

0c1033f4 <pb_getchartime>:
 c1033f4:	e1a0c00d 	mov	ip, sp
 c1033f8:	e92dd800 	push	{fp, ip, lr, pc}
 c1033fc:	e24cb004 	sub	fp, ip, #4
 c103400:	e24dd010 	sub	sp, sp, #16
 c103404:	e50b0018 	str	r0, [fp, #-24]	; 0xffffffe8
 c103408:	e1a00000 	nop			; (mov r0, r0)
 c10340c:	e59f3080 	ldr	r3, [pc, #128]	; c103494 <pb_getchartime+0xa0>
 c103410:	e5933000 	ldr	r3, [r3]
 c103414:	e20330c0 	and	r3, r3, #192	; 0xc0
 c103418:	e35300c0 	cmp	r3, #192	; 0xc0
 c10341c:	0afffffa 	beq	c10340c <pb_getchartime+0x18>
 c103420:	eb000869 	bl	c1055cc <timer3_start>
 c103424:	e3a0001e 	mov	r0, #30
 c103428:	eb0007fc 	bl	c105420 <sw_delay_ms>
 c10342c:	ebffffa6 	bl	c1032cc <pb_scan>
 c103430:	e1a03000 	mov	r3, r0
 c103434:	e54b300d 	strb	r3, [fp, #-13]
 c103438:	e1a00000 	nop			; (mov r0, r0)
 c10343c:	e59f3050 	ldr	r3, [pc, #80]	; c103494 <pb_getchartime+0xa0>
 c103440:	e5933000 	ldr	r3, [r3]
 c103444:	e20330c0 	and	r3, r3, #192	; 0xc0
 c103448:	e35300c0 	cmp	r3, #192	; 0xc0
 c10344c:	1afffffa 	bne	c10343c <pb_getchartime+0x48>
 c103450:	eb000894 	bl	c1056a8 <timer3_stop>
 c103454:	e1a03000 	mov	r3, r0
 c103458:	e1a02003 	mov	r2, r3
 c10345c:	e59f3034 	ldr	r3, [pc, #52]	; c103498 <pb_getchartime+0xa4>
 c103460:	e0831392 	umull	r1, r3, r2, r3
 c103464:	e1a031a3 	lsr	r3, r3, #3
 c103468:	e1a03803 	lsl	r3, r3, #16
 c10346c:	e1a02823 	lsr	r2, r3, #16
 c103470:	e51b3018 	ldr	r3, [fp, #-24]	; 0xffffffe8
 c103474:	e1c320b0 	strh	r2, [r3]
 c103478:	e3a00064 	mov	r0, #100	; 0x64
 c10347c:	eb0007e7 	bl	c105420 <sw_delay_ms>
 c103480:	e55b300d 	ldrb	r3, [fp, #-13]
 c103484:	e1a00003 	mov	r0, r3
 c103488:	e24bd00c 	sub	sp, fp, #12
 c10348c:	e89d6800 	ldm	sp, {fp, sp, lr}
 c103490:	e12fff1e 	bx	lr
 c103494:	01d20044 	.word	0x01d20044
 c103498:	cccccccd 	.word	0xcccccccd

0c10349c <pb_timeout_getchar>:
 c10349c:	e1a0c00d 	mov	ip, sp
 c1034a0:	e92dd800 	push	{fp, ip, lr, pc}
 c1034a4:	e24cb004 	sub	fp, ip, #4
 c1034a8:	e24dd010 	sub	sp, sp, #16
 c1034ac:	e1a03000 	mov	r3, r0
 c1034b0:	e14b31b6 	strh	r3, [fp, #-22]	; 0xffffffea
 c1034b4:	e15b31b6 	ldrh	r3, [fp, #-22]	; 0xffffffea
 c1034b8:	e1a02003 	mov	r2, r3
 c1034bc:	e1a02102 	lsl	r2, r2, #2
 c1034c0:	e0823003 	add	r3, r2, r3
 c1034c4:	e1a03083 	lsl	r3, r3, #1
 c1034c8:	e1a03803 	lsl	r3, r3, #16
 c1034cc:	e1a03823 	lsr	r3, r3, #16
 c1034d0:	e1a00003 	mov	r0, r3
 c1034d4:	eb000888 	bl	c1056fc <timer3_start_timeout>
 c1034d8:	e1a00000 	nop			; (mov r0, r0)
 c1034dc:	e59f30a4 	ldr	r3, [pc, #164]	; c103588 <pb_timeout_getchar+0xec>
 c1034e0:	e5933000 	ldr	r3, [r3]
 c1034e4:	e20330c0 	and	r3, r3, #192	; 0xc0
 c1034e8:	e35300c0 	cmp	r3, #192	; 0xc0
 c1034ec:	1a000003 	bne	c103500 <pb_timeout_getchar+0x64>
 c1034f0:	eb0008ba 	bl	c1057e0 <timer3_timeout>
 c1034f4:	e1a03000 	mov	r3, r0
 c1034f8:	e3530000 	cmp	r3, #0
 c1034fc:	0afffff6 	beq	c1034dc <pb_timeout_getchar+0x40>
 c103500:	eb0008b6 	bl	c1057e0 <timer3_timeout>
 c103504:	e1a03000 	mov	r3, r0
 c103508:	e3530000 	cmp	r3, #0
 c10350c:	0a000001 	beq	c103518 <pb_timeout_getchar+0x7c>
 c103510:	e3a030fe 	mov	r3, #254	; 0xfe
 c103514:	ea000017 	b	c103578 <pb_timeout_getchar+0xdc>
 c103518:	e3a0001e 	mov	r0, #30
 c10351c:	eb0007bf 	bl	c105420 <sw_delay_ms>
 c103520:	ebffff69 	bl	c1032cc <pb_scan>
 c103524:	e1a03000 	mov	r3, r0
 c103528:	e54b300d 	strb	r3, [fp, #-13]
 c10352c:	e1a00000 	nop			; (mov r0, r0)
 c103530:	e59f3050 	ldr	r3, [pc, #80]	; c103588 <pb_timeout_getchar+0xec>
 c103534:	e5933000 	ldr	r3, [r3]
 c103538:	e20330c0 	and	r3, r3, #192	; 0xc0
 c10353c:	e35300c0 	cmp	r3, #192	; 0xc0
 c103540:	0a000003 	beq	c103554 <pb_timeout_getchar+0xb8>
 c103544:	eb0008a5 	bl	c1057e0 <timer3_timeout>
 c103548:	e1a03000 	mov	r3, r0
 c10354c:	e3530000 	cmp	r3, #0
 c103550:	0afffff6 	beq	c103530 <pb_timeout_getchar+0x94>
 c103554:	eb0008a1 	bl	c1057e0 <timer3_timeout>
 c103558:	e1a03000 	mov	r3, r0
 c10355c:	e3530000 	cmp	r3, #0
 c103560:	0a000001 	beq	c10356c <pb_timeout_getchar+0xd0>
 c103564:	e3a030fe 	mov	r3, #254	; 0xfe
 c103568:	ea000002 	b	c103578 <pb_timeout_getchar+0xdc>
 c10356c:	e3a00064 	mov	r0, #100	; 0x64
 c103570:	eb0007aa 	bl	c105420 <sw_delay_ms>
 c103574:	e55b300d 	ldrb	r3, [fp, #-13]
 c103578:	e1a00003 	mov	r0, r3
 c10357c:	e24bd00c 	sub	sp, fp, #12
 c103580:	e89d6800 	ldm	sp, {fp, sp, lr}
 c103584:	e12fff1e 	bx	lr
 c103588:	01d20044 	.word	0x01d20044

0c10358c <pbs_open>:
 c10358c:	e1a0c00d 	mov	ip, sp
 c103590:	e92dd800 	push	{fp, ip, lr, pc}
 c103594:	e24cb004 	sub	fp, ip, #4
 c103598:	e24dd008 	sub	sp, sp, #8
 c10359c:	e50b0010 	str	r0, [fp, #-16]
 c1035a0:	e59f303c 	ldr	r3, [pc, #60]	; c1035e4 <pbs_open+0x58>
 c1035a4:	e51b2010 	ldr	r2, [fp, #-16]
 c1035a8:	e5832000 	str	r2, [r3]
 c1035ac:	e59f3034 	ldr	r3, [pc, #52]	; c1035e8 <pbs_open+0x5c>
 c1035b0:	e3a0200c 	mov	r2, #12
 c1035b4:	e5832000 	str	r2, [r3]
 c1035b8:	e59f302c 	ldr	r3, [pc, #44]	; c1035ec <pbs_open+0x60>
 c1035bc:	e3a02602 	mov	r2, #2097152	; 0x200000
 c1035c0:	e5832000 	str	r2, [r3]
 c1035c4:	e59f3024 	ldr	r3, [pc, #36]	; c1035f0 <pbs_open+0x64>
 c1035c8:	e59f2020 	ldr	r2, [pc, #32]	; c1035f0 <pbs_open+0x64>
 c1035cc:	e5922000 	ldr	r2, [r2]
 c1035d0:	e3c22642 	bic	r2, r2, #69206016	; 0x4200000
 c1035d4:	e5832000 	str	r2, [r3]
 c1035d8:	e24bd00c 	sub	sp, fp, #12
 c1035dc:	e89d6800 	ldm	sp, {fp, sp, lr}
 c1035e0:	e12fff1e 	bx	lr
 c1035e4:	0c7fff74 	.word	0x0c7fff74
 c1035e8:	01d20054 	.word	0x01d20054
 c1035ec:	01e00024 	.word	0x01e00024
 c1035f0:	01e0000c 	.word	0x01e0000c

0c1035f4 <pbs_close>:
 c1035f4:	e1a0c00d 	mov	ip, sp
 c1035f8:	e92dd800 	push	{fp, ip, lr, pc}
 c1035fc:	e24cb004 	sub	fp, ip, #4
 c103600:	e59f3024 	ldr	r3, [pc, #36]	; c10362c <pbs_close+0x38>
 c103604:	e59f2020 	ldr	r2, [pc, #32]	; c10362c <pbs_close+0x38>
 c103608:	e5922000 	ldr	r2, [r2]
 c10360c:	e3822602 	orr	r2, r2, #2097152	; 0x200000
 c103610:	e5832000 	str	r2, [r3]
 c103614:	e59f3014 	ldr	r3, [pc, #20]	; c103630 <pbs_close+0x3c>
 c103618:	e59f2014 	ldr	r2, [pc, #20]	; c103634 <pbs_close+0x40>
 c10361c:	e5832000 	str	r2, [r3]
 c103620:	e24bd00c 	sub	sp, fp, #12
 c103624:	e89d6800 	ldm	sp, {fp, sp, lr}
 c103628:	e12fff1e 	bx	lr
 c10362c:	01e0000c 	.word	0x01e0000c
 c103630:	0c7fff74 	.word	0x0c7fff74
 c103634:	0c1049a4 	.word	0x0c1049a4

0c103638 <power_on>:
 c103638:	e1a0c00d 	mov	ip, sp
 c10363c:	e92dd800 	push	{fp, ip, lr, pc}
 c103640:	e24cb004 	sub	fp, ip, #4
 c103644:	e24dd008 	sub	sp, sp, #8
 c103648:	e1a03000 	mov	r3, r0
 c10364c:	e54b300d 	strb	r3, [fp, #-13]
 c103650:	e55b300d 	ldrb	r3, [fp, #-13]
 c103654:	e353000e 	cmp	r3, #14
 c103658:	8a000029 	bhi	c103704 <power_on+0xcc>
 c10365c:	e59f20ac 	ldr	r2, [pc, #172]	; c103710 <power_on+0xd8>
 c103660:	e1a02312 	lsl	r2, r2, r3
 c103664:	e3520000 	cmp	r2, #0
 c103668:	ba000008 	blt	c103690 <power_on+0x58>
 c10366c:	e3a02409 	mov	r2, #150994944	; 0x9000000
 c103670:	e1a02312 	lsl	r2, r2, r3
 c103674:	e3520000 	cmp	r2, #0
 c103678:	ba000018 	blt	c1036e0 <power_on+0xa8>
 c10367c:	e3a02603 	mov	r2, #3145728	; 0x300000
 c103680:	e1a03312 	lsl	r3, r2, r3
 c103684:	e3530000 	cmp	r3, #0
 c103688:	aa00001d 	bge	c103704 <power_on+0xcc>
 c10368c:	ea000009 	b	c1036b8 <power_on+0x80>
 c103690:	e59f307c 	ldr	r3, [pc, #124]	; c103714 <power_on+0xdc>
 c103694:	e59f2078 	ldr	r2, [pc, #120]	; c103714 <power_on+0xdc>
 c103698:	e5921000 	ldr	r1, [r2]
 c10369c:	e55b200d 	ldrb	r2, [fp, #-13]
 c1036a0:	e3a00001 	mov	r0, #1
 c1036a4:	e1a02210 	lsl	r2, r0, r2
 c1036a8:	e1812002 	orr	r2, r1, r2
 c1036ac:	e3822d12 	orr	r2, r2, #1152	; 0x480
 c1036b0:	e5832000 	str	r2, [r3]
 c1036b4:	ea000012 	b	c103704 <power_on+0xcc>
 c1036b8:	e59f3054 	ldr	r3, [pc, #84]	; c103714 <power_on+0xdc>
 c1036bc:	e59f2050 	ldr	r2, [pc, #80]	; c103714 <power_on+0xdc>
 c1036c0:	e5921000 	ldr	r1, [r2]
 c1036c4:	e55b200d 	ldrb	r2, [fp, #-13]
 c1036c8:	e3a00001 	mov	r0, #1
 c1036cc:	e1a02210 	lsl	r2, r0, r2
 c1036d0:	e1812002 	orr	r2, r1, r2
 c1036d4:	e3822080 	orr	r2, r2, #128	; 0x80
 c1036d8:	e5832000 	str	r2, [r3]
 c1036dc:	ea000008 	b	c103704 <power_on+0xcc>
 c1036e0:	e59f302c 	ldr	r3, [pc, #44]	; c103714 <power_on+0xdc>
 c1036e4:	e59f2028 	ldr	r2, [pc, #40]	; c103714 <power_on+0xdc>
 c1036e8:	e5921000 	ldr	r1, [r2]
 c1036ec:	e55b200d 	ldrb	r2, [fp, #-13]
 c1036f0:	e3a00001 	mov	r0, #1
 c1036f4:	e1a02210 	lsl	r2, r0, r2
 c1036f8:	e1812002 	orr	r2, r1, r2
 c1036fc:	e5832000 	str	r2, [r3]
 c103700:	e1a00000 	nop			; (mov r0, r0)
 c103704:	e24bd00c 	sub	sp, fp, #12
 c103708:	e89d6800 	ldm	sp, {fp, sp, lr}
 c10370c:	e12fff1e 	bx	lr
 c103710:	16ce0000 	.word	0x16ce0000
 c103714:	01d80004 	.word	0x01d80004

0c103718 <power_off>:
 c103718:	e1a0c00d 	mov	ip, sp
 c10371c:	e92dd800 	push	{fp, ip, lr, pc}
 c103720:	e24cb004 	sub	fp, ip, #4
 c103724:	e24dd008 	sub	sp, sp, #8
 c103728:	e1a03000 	mov	r3, r0
 c10372c:	e54b300d 	strb	r3, [fp, #-13]
 c103730:	e55b300d 	ldrb	r3, [fp, #-13]
 c103734:	e353000e 	cmp	r3, #14
 c103738:	8a000029 	bhi	c1037e4 <power_off+0xcc>
 c10373c:	e59f20ac 	ldr	r2, [pc, #172]	; c1037f0 <power_off+0xd8>
 c103740:	e1a02312 	lsl	r2, r2, r3
 c103744:	e3520000 	cmp	r2, #0
 c103748:	ba000004 	blt	c103760 <power_off+0x48>
 c10374c:	e3a02409 	mov	r2, #150994944	; 0x9000000
 c103750:	e1a03312 	lsl	r3, r2, r3
 c103754:	e3530000 	cmp	r3, #0
 c103758:	aa000021 	bge	c1037e4 <power_off+0xcc>
 c10375c:	ea000014 	b	c1037b4 <power_off+0x9c>
 c103760:	e59f308c 	ldr	r3, [pc, #140]	; c1037f4 <power_off+0xdc>
 c103764:	e59f2088 	ldr	r2, [pc, #136]	; c1037f4 <power_off+0xdc>
 c103768:	e5921000 	ldr	r1, [r2]
 c10376c:	e55b200d 	ldrb	r2, [fp, #-13]
 c103770:	e3a00001 	mov	r0, #1
 c103774:	e1a02210 	lsl	r2, r0, r2
 c103778:	e1e02002 	mvn	r2, r2
 c10377c:	e0012002 	and	r2, r1, r2
 c103780:	e5832000 	str	r2, [r3]
 c103784:	e59f3068 	ldr	r3, [pc, #104]	; c1037f4 <power_off+0xdc>
 c103788:	e5932000 	ldr	r2, [r3]
 c10378c:	e59f3064 	ldr	r3, [pc, #100]	; c1037f8 <power_off+0xe0>
 c103790:	e0023003 	and	r3, r2, r3
 c103794:	e3530000 	cmp	r3, #0
 c103798:	1a000010 	bne	c1037e0 <power_off+0xc8>
 c10379c:	e59f3050 	ldr	r3, [pc, #80]	; c1037f4 <power_off+0xdc>
 c1037a0:	e59f204c 	ldr	r2, [pc, #76]	; c1037f4 <power_off+0xdc>
 c1037a4:	e5922000 	ldr	r2, [r2]
 c1037a8:	e3c22080 	bic	r2, r2, #128	; 0x80
 c1037ac:	e5832000 	str	r2, [r3]
 c1037b0:	ea00000b 	b	c1037e4 <power_off+0xcc>
 c1037b4:	e59f3038 	ldr	r3, [pc, #56]	; c1037f4 <power_off+0xdc>
 c1037b8:	e59f2034 	ldr	r2, [pc, #52]	; c1037f4 <power_off+0xdc>
 c1037bc:	e5921000 	ldr	r1, [r2]
 c1037c0:	e55b200d 	ldrb	r2, [fp, #-13]
 c1037c4:	e3a00001 	mov	r0, #1
 c1037c8:	e1a02210 	lsl	r2, r0, r2
 c1037cc:	e1e02002 	mvn	r2, r2
 c1037d0:	e0012002 	and	r2, r1, r2
 c1037d4:	e5832000 	str	r2, [r3]
 c1037d8:	e1a00000 	nop			; (mov r0, r0)
 c1037dc:	ea000000 	b	c1037e4 <power_off+0xcc>
 c1037e0:	e1a00000 	nop			; (mov r0, r0)
 c1037e4:	e24bd00c 	sub	sp, fp, #12
 c1037e8:	e89d6800 	ldm	sp, {fp, sp, lr}
 c1037ec:	e12fff1e 	bx	lr
 c1037f0:	16fe0000 	.word	0x16fe0000
 c1037f4:	01d80004 	.word	0x01d80004
 c1037f8:	00007f68 	.word	0x00007f68

0c1037fc <power_status>:
 c1037fc:	e1a0c00d 	mov	ip, sp
 c103800:	e92dd800 	push	{fp, ip, lr, pc}
 c103804:	e24cb004 	sub	fp, ip, #4
 c103808:	e24dd008 	sub	sp, sp, #8
 c10380c:	e1a03000 	mov	r3, r0
 c103810:	e54b300d 	strb	r3, [fp, #-13]
 c103814:	e59f302c 	ldr	r3, [pc, #44]	; c103848 <power_status+0x4c>
 c103818:	e5932000 	ldr	r2, [r3]
 c10381c:	e55b300d 	ldrb	r3, [fp, #-13]
 c103820:	e3a01001 	mov	r1, #1
 c103824:	e1a03311 	lsl	r3, r1, r3
 c103828:	e0022003 	and	r2, r2, r3
 c10382c:	e55b300d 	ldrb	r3, [fp, #-13]
 c103830:	e1a03332 	lsr	r3, r2, r3
 c103834:	e20330ff 	and	r3, r3, #255	; 0xff
 c103838:	e1a00003 	mov	r0, r3
 c10383c:	e24bd00c 	sub	sp, fp, #12
 c103840:	e89d6800 	ldm	sp, {fp, sp, lr}
 c103844:	e12fff1e 	bx	lr
 c103848:	01d80004 	.word	0x01d80004

0c10384c <segs_init>:
 c10384c:	e1a0c00d 	mov	ip, sp
 c103850:	e92dd800 	push	{fp, ip, lr, pc}
 c103854:	e24cb004 	sub	fp, ip, #4
 c103858:	e3a0000a 	mov	r0, #10
 c10385c:	ebffff75 	bl	c103638 <power_on>
 c103860:	e59f301c 	ldr	r3, [pc, #28]	; c103884 <segs_init+0x38>
 c103864:	e59f2018 	ldr	r2, [pc, #24]	; c103884 <segs_init+0x38>
 c103868:	e5922000 	ldr	r2, [r2]
 c10386c:	e3822040 	orr	r2, r2, #64	; 0x40
 c103870:	e5832000 	str	r2, [r3]
 c103874:	eb000003 	bl	c103888 <segs_off>
 c103878:	e24bd00c 	sub	sp, fp, #12
 c10387c:	e89d6800 	ldm	sp, {fp, sp, lr}
 c103880:	e12fff1e 	bx	lr
 c103884:	01d20008 	.word	0x01d20008

0c103888 <segs_off>:
 c103888:	e1a0c00d 	mov	ip, sp
 c10388c:	e92dd800 	push	{fp, ip, lr, pc}
 c103890:	e24cb004 	sub	fp, ip, #4
 c103894:	e59f3020 	ldr	r3, [pc, #32]	; c1038bc <segs_off+0x34>
 c103898:	e3e02000 	mvn	r2, #0
 c10389c:	e5c32000 	strb	r2, [r3]
 c1038a0:	e3a03785 	mov	r3, #34865152	; 0x2140000
 c1038a4:	e59f2010 	ldr	r2, [pc, #16]	; c1038bc <segs_off+0x34>
 c1038a8:	e5d22000 	ldrb	r2, [r2]
 c1038ac:	e5c32000 	strb	r2, [r3]
 c1038b0:	e24bd00c 	sub	sp, fp, #12
 c1038b4:	e89d6800 	ldm	sp, {fp, sp, lr}
 c1038b8:	e12fff1e 	bx	lr
 c1038bc:	0c112370 	.word	0x0c112370

0c1038c0 <segs_putchar>:
 c1038c0:	e1a0c00d 	mov	ip, sp
 c1038c4:	e92dd800 	push	{fp, ip, lr, pc}
 c1038c8:	e24cb004 	sub	fp, ip, #4
 c1038cc:	e24dd008 	sub	sp, sp, #8
 c1038d0:	e1a03000 	mov	r3, r0
 c1038d4:	e54b300d 	strb	r3, [fp, #-13]
 c1038d8:	e55b300d 	ldrb	r3, [fp, #-13]
 c1038dc:	e203300f 	and	r3, r3, #15
 c1038e0:	e20320ff 	and	r2, r3, #255	; 0xff
 c1038e4:	e59f3024 	ldr	r3, [pc, #36]	; c103910 <segs_putchar+0x50>
 c1038e8:	e5c32000 	strb	r2, [r3]
 c1038ec:	e3a03785 	mov	r3, #34865152	; 0x2140000
 c1038f0:	e59f2018 	ldr	r2, [pc, #24]	; c103910 <segs_putchar+0x50>
 c1038f4:	e5d22000 	ldrb	r2, [r2]
 c1038f8:	e59f1014 	ldr	r1, [pc, #20]	; c103914 <segs_putchar+0x54>
 c1038fc:	e7d12002 	ldrb	r2, [r1, r2]
 c103900:	e5c32000 	strb	r2, [r3]
 c103904:	e24bd00c 	sub	sp, fp, #12
 c103908:	e89d6800 	ldm	sp, {fp, sp, lr}
 c10390c:	e12fff1e 	bx	lr
 c103910:	0c112370 	.word	0x0c112370
 c103914:	0c107620 	.word	0x0c107620

0c103918 <segs_status>:
 c103918:	e1a0c00d 	mov	ip, sp
 c10391c:	e92dd800 	push	{fp, ip, lr, pc}
 c103920:	e24cb004 	sub	fp, ip, #4
 c103924:	e59f3010 	ldr	r3, [pc, #16]	; c10393c <segs_status+0x24>
 c103928:	e5d33000 	ldrb	r3, [r3]
 c10392c:	e1a00003 	mov	r0, r3
 c103930:	e24bd00c 	sub	sp, fp, #12
 c103934:	e89d6800 	ldm	sp, {fp, sp, lr}
 c103938:	e12fff1e 	bx	lr
 c10393c:	0c112370 	.word	0x0c112370

0c103940 <sys_init>:
 c103940:	e1a0c00d 	mov	ip, sp
 c103944:	e92dd800 	push	{fp, ip, lr, pc}
 c103948:	e24cb004 	sub	fp, ip, #4
 c10394c:	e24dd008 	sub	sp, sp, #8
 c103950:	e59f3124 	ldr	r3, [pc, #292]	; c103a7c <sys_init+0x13c>
 c103954:	e3a02000 	mov	r2, #0
 c103958:	e5832000 	str	r2, [r3]
 c10395c:	e59f311c 	ldr	r3, [pc, #284]	; c103a80 <sys_init+0x140>
 c103960:	e3e02000 	mvn	r2, #0
 c103964:	e5832000 	str	r2, [r3]
 c103968:	e10f0000 	mrs	r0, CPSR
 c10396c:	e200001f 	and	r0, r0, #31
 c103970:	e54b000d 	strb	r0, [fp, #-13]
 c103974:	e55b300d 	ldrb	r3, [fp, #-13]
 c103978:	e3530013 	cmp	r3, #19
 c10397c:	0a000000 	beq	c103984 <sys_init+0x44>
 c103980:	eb000051 	bl	c103acc <sys_recovery>
 c103984:	e59f30f8 	ldr	r3, [pc, #248]	; c103a84 <sys_init+0x144>
 c103988:	e59f20f8 	ldr	r2, [pc, #248]	; c103a88 <sys_init+0x148>
 c10398c:	e5832000 	str	r2, [r3]
 c103990:	e3a03776 	mov	r3, #30932992	; 0x1d80000
 c103994:	e59f20f0 	ldr	r2, [pc, #240]	; c103a8c <sys_init+0x14c>
 c103998:	e5832000 	str	r2, [r3]
 c10399c:	e59f30ec 	ldr	r3, [pc, #236]	; c103a90 <sys_init+0x150>
 c1039a0:	e59f20ec 	ldr	r2, [pc, #236]	; c103a94 <sys_init+0x154>
 c1039a4:	e5832000 	str	r2, [r3]
 c1039a8:	e59f30e8 	ldr	r3, [pc, #232]	; c103a98 <sys_init+0x158>
 c1039ac:	e3a02008 	mov	r2, #8
 c1039b0:	e5832000 	str	r2, [r3]
 c1039b4:	e59f30e0 	ldr	r3, [pc, #224]	; c103a9c <sys_init+0x15c>
 c1039b8:	e59f20e0 	ldr	r2, [pc, #224]	; c103aa0 <sys_init+0x160>
 c1039bc:	e5832000 	str	r2, [r3]
 c1039c0:	e59f30dc 	ldr	r3, [pc, #220]	; c103aa4 <sys_init+0x164>
 c1039c4:	e59f20dc 	ldr	r2, [pc, #220]	; c103aa8 <sys_init+0x168>
 c1039c8:	e5832000 	str	r2, [r3]
 c1039cc:	e59f30bc 	ldr	r3, [pc, #188]	; c103a90 <sys_init+0x150>
 c1039d0:	e5932000 	ldr	r2, [r3]
 c1039d4:	e59f30d0 	ldr	r3, [pc, #208]	; c103aac <sys_init+0x16c>
 c1039d8:	e5832000 	str	r2, [r3]
 c1039dc:	e3a03771 	mov	r3, #29622272	; 0x1c40000
 c1039e0:	e3a0216e 	mov	r2, #-2147483621	; 0x8000001b
 c1039e4:	e5832000 	str	r2, [r3]
 c1039e8:	e3a03507 	mov	r3, #29360128	; 0x1c00000
 c1039ec:	e3a02000 	mov	r2, #0
 c1039f0:	e5832000 	str	r2, [r3]
 c1039f4:	e59f30b4 	ldr	r3, [pc, #180]	; c103ab0 <sys_init+0x170>
 c1039f8:	e59f20b4 	ldr	r2, [pc, #180]	; c103ab4 <sys_init+0x174>
 c1039fc:	e5832000 	str	r2, [r3]
 c103a00:	e59f30b0 	ldr	r3, [pc, #176]	; c103ab8 <sys_init+0x178>
 c103a04:	e59f20b0 	ldr	r2, [pc, #176]	; c103abc <sys_init+0x17c>
 c103a08:	e5832000 	str	r2, [r3]
 c103a0c:	e59f30ac 	ldr	r3, [pc, #172]	; c103ac0 <sys_init+0x180>
 c103a10:	e3a02000 	mov	r2, #0
 c103a14:	e5832000 	str	r2, [r3]
 c103a18:	eb000159 	bl	c103f84 <install_dummy_isr>
 c103a1c:	e59f30a0 	ldr	r3, [pc, #160]	; c103ac4 <sys_init+0x184>
 c103a20:	e3e02000 	mvn	r2, #0
 c103a24:	e5832000 	str	r2, [r3]
 c103a28:	e59f3098 	ldr	r3, [pc, #152]	; c103ac8 <sys_init+0x188>
 c103a2c:	e3e02000 	mvn	r2, #0
 c103a30:	e5832000 	str	r2, [r3]
 c103a34:	e3a0361e 	mov	r3, #31457280	; 0x1e00000
 c103a38:	e3a02001 	mov	r2, #1
 c103a3c:	e5832000 	str	r2, [r3]
 c103a40:	e10f0000 	mrs	r0, CPSR
 c103a44:	e3c00080 	bic	r0, r0, #128	; 0x80
 c103a48:	e3800000 	orr	r0, r0, #0
 c103a4c:	e121f000 	msr	CPSR_c, r0
 c103a50:	e10f0000 	mrs	r0, CPSR
 c103a54:	e3c00040 	bic	r0, r0, #64	; 0x40
 c103a58:	e3800040 	orr	r0, r0, #64	; 0x40
 c103a5c:	e121f000 	msr	CPSR_c, r0
 c103a60:	eb0000a1 	bl	c103cec <port_init>
 c103a64:	ebffff78 	bl	c10384c <segs_init>
 c103a68:	eb00086f 	bl	c105c2c <uart0_init>
 c103a6c:	eb000426 	bl	c104b0c <show_sys_info>
 c103a70:	e24bd00c 	sub	sp, fp, #12
 c103a74:	e89d6800 	ldm	sp, {fp, sp, lr}
 c103a78:	e12fff1e 	bx	lr
 c103a7c:	01d30000 	.word	0x01d30000
 c103a80:	01e0000c 	.word	0x01e0000c
 c103a84:	01d8000c 	.word	0x01d8000c
 c103a88:	00000fff 	.word	0x00000fff
 c103a8c:	00038021 	.word	0x00038021
 c103a90:	0c108d28 	.word	0x0c108d28
 c103a94:	03d09000 	.word	0x03d09000
 c103a98:	01d80008 	.word	0x01d80008
 c103a9c:	0c108d2c 	.word	0x0c108d2c
 c103aa0:	0007a120 	.word	0x0007a120
 c103aa4:	01d80004 	.word	0x01d80004
 c103aa8:	00007ff8 	.word	0x00007ff8
 c103aac:	0c108d30 	.word	0x0c108d30
 c103ab0:	01e00014 	.word	0x01e00014
 c103ab4:	00001f1b 	.word	0x00001f1b
 c103ab8:	01e00010 	.word	0x01e00010
 c103abc:	1b1b1b1b 	.word	0x1b1b1b1b
 c103ac0:	01e00008 	.word	0x01e00008
 c103ac4:	01d20054 	.word	0x01d20054
 c103ac8:	01e00024 	.word	0x01e00024

0c103acc <sys_recovery>:
 c103acc:	e1a0c00d 	mov	ip, sp
 c103ad0:	e92dd800 	push	{fp, ip, lr, pc}
 c103ad4:	e24cb004 	sub	fp, ip, #4
 c103ad8:	e24dd018 	sub	sp, sp, #24
 c103adc:	e50bd01c 	str	sp, [fp, #-28]	; 0xffffffe4
 c103ae0:	e50bb020 	str	fp, [fp, #-32]	; 0xffffffe0
 c103ae4:	e10f0000 	mrs	r0, CPSR
 c103ae8:	e200001f 	and	r0, r0, #31
 c103aec:	e54b0015 	strb	r0, [fp, #-21]	; 0xffffffeb
 c103af0:	e55b3015 	ldrb	r3, [fp, #-21]	; 0xffffffeb
 c103af4:	e2433011 	sub	r3, r3, #17
 c103af8:	e353000a 	cmp	r3, #10
 c103afc:	979ff103 	ldrls	pc, [pc, r3, lsl #2]
 c103b00:	ea00001e 	b	c103b80 <sys_recovery+0xb4>
 c103b04:	0c103b44 	.word	0x0c103b44
 c103b08:	0c103b30 	.word	0x0c103b30
 c103b0c:	0c103b80 	.word	0x0c103b80
 c103b10:	0c103b80 	.word	0x0c103b80
 c103b14:	0c103b80 	.word	0x0c103b80
 c103b18:	0c103b80 	.word	0x0c103b80
 c103b1c:	0c103b58 	.word	0x0c103b58
 c103b20:	0c103b80 	.word	0x0c103b80
 c103b24:	0c103b80 	.word	0x0c103b80
 c103b28:	0c103b80 	.word	0x0c103b80
 c103b2c:	0c103b6c 	.word	0x0c103b6c
 c103b30:	e3a03c03 	mov	r3, #768	; 0x300
 c103b34:	e50b3014 	str	r3, [fp, #-20]	; 0xffffffec
 c103b38:	e59f3198 	ldr	r3, [pc, #408]	; c103cd8 <sys_recovery+0x20c>
 c103b3c:	e50b3024 	str	r3, [fp, #-36]	; 0xffffffdc
 c103b40:	ea00000f 	b	c103b84 <sys_recovery+0xb8>
 c103b44:	e3a03b01 	mov	r3, #1024	; 0x400
 c103b48:	e50b3014 	str	r3, [fp, #-20]	; 0xffffffec
 c103b4c:	e59f3188 	ldr	r3, [pc, #392]	; c103cdc <sys_recovery+0x210>
 c103b50:	e50b3024 	str	r3, [fp, #-36]	; 0xffffffdc
 c103b54:	ea00000a 	b	c103b84 <sys_recovery+0xb8>
 c103b58:	e3a03c02 	mov	r3, #512	; 0x200
 c103b5c:	e50b3014 	str	r3, [fp, #-20]	; 0xffffffec
 c103b60:	e59f3178 	ldr	r3, [pc, #376]	; c103ce0 <sys_recovery+0x214>
 c103b64:	e50b3024 	str	r3, [fp, #-36]	; 0xffffffdc
 c103b68:	ea000005 	b	c103b84 <sys_recovery+0xb8>
 c103b6c:	e3a03c01 	mov	r3, #256	; 0x100
 c103b70:	e50b3014 	str	r3, [fp, #-20]	; 0xffffffec
 c103b74:	e59f3168 	ldr	r3, [pc, #360]	; c103ce4 <sys_recovery+0x218>
 c103b78:	e50b3024 	str	r3, [fp, #-36]	; 0xffffffdc
 c103b7c:	ea000000 	b	c103b84 <sys_recovery+0xb8>
 c103b80:	eafffffe 	b	c103b80 <sys_recovery+0xb4>
 c103b84:	e51bd024 	ldr	sp, [fp, #-36]	; 0xffffffdc
 c103b88:	e59f3158 	ldr	r3, [pc, #344]	; c103ce8 <sys_recovery+0x21c>
 c103b8c:	e50b3010 	str	r3, [fp, #-16]
 c103b90:	ea000009 	b	c103bbc <sys_recovery+0xf0>
 c103b94:	e51b3010 	ldr	r3, [fp, #-16]
 c103b98:	e2433004 	sub	r3, r3, #4
 c103b9c:	e50b3010 	str	r3, [fp, #-16]
 c103ba0:	e51b3024 	ldr	r3, [fp, #-36]	; 0xffffffdc
 c103ba4:	e2433004 	sub	r3, r3, #4
 c103ba8:	e50b3024 	str	r3, [fp, #-36]	; 0xffffffdc
 c103bac:	e51b3024 	ldr	r3, [fp, #-36]	; 0xffffffdc
 c103bb0:	e5932000 	ldr	r2, [r3]
 c103bb4:	e51b3010 	ldr	r3, [fp, #-16]
 c103bb8:	e5832000 	str	r2, [r3]
 c103bbc:	e51b301c 	ldr	r3, [fp, #-28]	; 0xffffffe4
 c103bc0:	e1a02003 	mov	r2, r3
 c103bc4:	e51b3024 	ldr	r3, [fp, #-36]	; 0xffffffdc
 c103bc8:	e1520003 	cmp	r2, r3
 c103bcc:	3afffff0 	bcc	c103b94 <sys_recovery+0xc8>
 c103bd0:	e51b2020 	ldr	r2, [fp, #-32]	; 0xffffffe0
 c103bd4:	e51b3014 	ldr	r3, [fp, #-20]	; 0xffffffec
 c103bd8:	e0633002 	rsb	r3, r3, r2
 c103bdc:	e50b3010 	str	r3, [fp, #-16]
 c103be0:	e51b3010 	ldr	r3, [fp, #-16]
 c103be4:	e2433004 	sub	r3, r3, #4
 c103be8:	e50b3010 	str	r3, [fp, #-16]
 c103bec:	e51b3010 	ldr	r3, [fp, #-16]
 c103bf0:	e2433004 	sub	r3, r3, #4
 c103bf4:	e50b3010 	str	r3, [fp, #-16]
 c103bf8:	e51b3010 	ldr	r3, [fp, #-16]
 c103bfc:	e5932000 	ldr	r2, [r3]
 c103c00:	e51b3014 	ldr	r3, [fp, #-20]	; 0xffffffec
 c103c04:	e0632002 	rsb	r2, r3, r2
 c103c08:	e51b3010 	ldr	r3, [fp, #-16]
 c103c0c:	e5832000 	str	r2, [r3]
 c103c10:	e51b3010 	ldr	r3, [fp, #-16]
 c103c14:	e2433004 	sub	r3, r3, #4
 c103c18:	e50b3010 	str	r3, [fp, #-16]
 c103c1c:	e51b3010 	ldr	r3, [fp, #-16]
 c103c20:	e5932000 	ldr	r2, [r3]
 c103c24:	e51b3014 	ldr	r3, [fp, #-20]	; 0xffffffec
 c103c28:	e0632002 	rsb	r2, r3, r2
 c103c2c:	e51b3010 	ldr	r3, [fp, #-16]
 c103c30:	e5832000 	str	r2, [r3]
 c103c34:	e51b3010 	ldr	r3, [fp, #-16]
 c103c38:	e5933000 	ldr	r3, [r3]
 c103c3c:	e50b3010 	str	r3, [fp, #-16]
 c103c40:	e51b3010 	ldr	r3, [fp, #-16]
 c103c44:	e2433004 	sub	r3, r3, #4
 c103c48:	e50b3010 	str	r3, [fp, #-16]
 c103c4c:	e51b3010 	ldr	r3, [fp, #-16]
 c103c50:	e2433004 	sub	r3, r3, #4
 c103c54:	e50b3010 	str	r3, [fp, #-16]
 c103c58:	e51b3010 	ldr	r3, [fp, #-16]
 c103c5c:	e5932000 	ldr	r2, [r3]
 c103c60:	e51b3014 	ldr	r3, [fp, #-20]	; 0xffffffec
 c103c64:	e0632002 	rsb	r2, r3, r2
 c103c68:	e51b3010 	ldr	r3, [fp, #-16]
 c103c6c:	e5832000 	str	r2, [r3]
 c103c70:	e51b3010 	ldr	r3, [fp, #-16]
 c103c74:	e2433004 	sub	r3, r3, #4
 c103c78:	e50b3010 	str	r3, [fp, #-16]
 c103c7c:	e51b3010 	ldr	r3, [fp, #-16]
 c103c80:	e5932000 	ldr	r2, [r3]
 c103c84:	e51b3014 	ldr	r3, [fp, #-20]	; 0xffffffec
 c103c88:	e0632002 	rsb	r2, r3, r2
 c103c8c:	e51b3010 	ldr	r3, [fp, #-16]
 c103c90:	e5832000 	str	r2, [r3]
 c103c94:	e10f0000 	mrs	r0, CPSR
 c103c98:	e3c0001f 	bic	r0, r0, #31
 c103c9c:	e3800013 	orr	r0, r0, #19
 c103ca0:	e121f000 	msr	CPSR_c, r0
 c103ca4:	e51b201c 	ldr	r2, [fp, #-28]	; 0xffffffe4
 c103ca8:	e51b3014 	ldr	r3, [fp, #-20]	; 0xffffffec
 c103cac:	e0633002 	rsb	r3, r3, r2
 c103cb0:	e50b301c 	str	r3, [fp, #-28]	; 0xffffffe4
 c103cb4:	e51bd01c 	ldr	sp, [fp, #-28]	; 0xffffffe4
 c103cb8:	e51b2020 	ldr	r2, [fp, #-32]	; 0xffffffe0
 c103cbc:	e51b3014 	ldr	r3, [fp, #-20]	; 0xffffffec
 c103cc0:	e0633002 	rsb	r3, r3, r2
 c103cc4:	e50b3020 	str	r3, [fp, #-32]	; 0xffffffe0
 c103cc8:	e51bb020 	ldr	fp, [fp, #-32]	; 0xffffffe0
 c103ccc:	e24bd00c 	sub	sp, fp, #12
 c103cd0:	e89d6800 	ldm	sp, {fp, sp, lr}
 c103cd4:	e12fff1e 	bx	lr
 c103cd8:	0c7ff400 	.word	0x0c7ff400
 c103cdc:	0c7ff500 	.word	0x0c7ff500
 c103ce0:	0c7ff300 	.word	0x0c7ff300
 c103ce4:	0c7ff200 	.word	0x0c7ff200
 c103ce8:	0c7ff100 	.word	0x0c7ff100

0c103cec <port_init>:
 c103cec:	e1a0c00d 	mov	ip, sp
 c103cf0:	e92dd800 	push	{fp, ip, lr, pc}
 c103cf4:	e24cb004 	sub	fp, ip, #4
 c103cf8:	e59f31fc 	ldr	r3, [pc, #508]	; c103efc <port_init+0x210>
 c103cfc:	e3e02000 	mvn	r2, #0
 c103d00:	e5832000 	str	r2, [r3]
 c103d04:	e59f31f4 	ldr	r3, [pc, #500]	; c103f00 <port_init+0x214>
 c103d08:	e3a020fe 	mov	r2, #254	; 0xfe
 c103d0c:	e5832000 	str	r2, [r3]
 c103d10:	e59f31ec 	ldr	r3, [pc, #492]	; c103f04 <port_init+0x218>
 c103d14:	e3e02000 	mvn	r2, #0
 c103d18:	e5832000 	str	r2, [r3]
 c103d1c:	e59f31e4 	ldr	r3, [pc, #484]	; c103f08 <port_init+0x21c>
 c103d20:	e59f21e4 	ldr	r2, [pc, #484]	; c103f0c <port_init+0x220>
 c103d24:	e5832000 	str	r2, [r3]
 c103d28:	e59f31e0 	ldr	r3, [pc, #480]	; c103f10 <port_init+0x224>
 c103d2c:	e3e02000 	mvn	r2, #0
 c103d30:	e5832000 	str	r2, [r3]
 c103d34:	e59f31d8 	ldr	r3, [pc, #472]	; c103f14 <port_init+0x228>
 c103d38:	e59f21d8 	ldr	r2, [pc, #472]	; c103f18 <port_init+0x22c>
 c103d3c:	e5832000 	str	r2, [r3]
 c103d40:	e59f31d4 	ldr	r3, [pc, #468]	; c103f1c <port_init+0x230>
 c103d44:	e3e02000 	mvn	r2, #0
 c103d48:	e5832000 	str	r2, [r3]
 c103d4c:	e59f31cc 	ldr	r3, [pc, #460]	; c103f20 <port_init+0x234>
 c103d50:	e3e02000 	mvn	r2, #0
 c103d54:	e5832000 	str	r2, [r3]
 c103d58:	e59f31c4 	ldr	r3, [pc, #452]	; c103f24 <port_init+0x238>
 c103d5c:	e59f21c4 	ldr	r2, [pc, #452]	; c103f28 <port_init+0x23c>
 c103d60:	e5832000 	str	r2, [r3]
 c103d64:	e59f31c0 	ldr	r3, [pc, #448]	; c103f2c <port_init+0x240>
 c103d68:	e3e02000 	mvn	r2, #0
 c103d6c:	e5832000 	str	r2, [r3]
 c103d70:	e59f31b8 	ldr	r3, [pc, #440]	; c103f30 <port_init+0x244>
 c103d74:	e3e02000 	mvn	r2, #0
 c103d78:	e5832000 	str	r2, [r3]
 c103d7c:	e59f31b0 	ldr	r3, [pc, #432]	; c103f34 <port_init+0x248>
 c103d80:	e59f21b0 	ldr	r2, [pc, #432]	; c103f38 <port_init+0x24c>
 c103d84:	e5832000 	str	r2, [r3]
 c103d88:	e59f31ac 	ldr	r3, [pc, #428]	; c103f3c <port_init+0x250>
 c103d8c:	e3e02000 	mvn	r2, #0
 c103d90:	e5832000 	str	r2, [r3]
 c103d94:	e59f31a4 	ldr	r3, [pc, #420]	; c103f40 <port_init+0x254>
 c103d98:	e3e02000 	mvn	r2, #0
 c103d9c:	e5832000 	str	r2, [r3]
 c103da0:	e59f319c 	ldr	r3, [pc, #412]	; c103f44 <port_init+0x258>
 c103da4:	e59f219c 	ldr	r2, [pc, #412]	; c103f48 <port_init+0x25c>
 c103da8:	e5832000 	str	r2, [r3]
 c103dac:	e59f3198 	ldr	r3, [pc, #408]	; c103f4c <port_init+0x260>
 c103db0:	e3e02000 	mvn	r2, #0
 c103db4:	e5832000 	str	r2, [r3]
 c103db8:	e59f3190 	ldr	r3, [pc, #400]	; c103f50 <port_init+0x264>
 c103dbc:	e3e02000 	mvn	r2, #0
 c103dc0:	e5832000 	str	r2, [r3]
 c103dc4:	e59f3188 	ldr	r3, [pc, #392]	; c103f54 <port_init+0x268>
 c103dc8:	e59f2158 	ldr	r2, [pc, #344]	; c103f28 <port_init+0x23c>
 c103dcc:	e5832000 	str	r2, [r3]
 c103dd0:	e59f3180 	ldr	r3, [pc, #384]	; c103f58 <port_init+0x26c>
 c103dd4:	e3e02000 	mvn	r2, #0
 c103dd8:	e5832000 	str	r2, [r3]
 c103ddc:	e59f3178 	ldr	r3, [pc, #376]	; c103f5c <port_init+0x270>
 c103de0:	e3a02007 	mov	r2, #7
 c103de4:	e5832000 	str	r2, [r3]
 c103de8:	e59f3170 	ldr	r3, [pc, #368]	; c103f60 <port_init+0x274>
 c103dec:	e59f2170 	ldr	r2, [pc, #368]	; c103f64 <port_init+0x278>
 c103df0:	e5832000 	str	r2, [r3]
 c103df4:	e59f3100 	ldr	r3, [pc, #256]	; c103efc <port_init+0x210>
 c103df8:	e3e02000 	mvn	r2, #0
 c103dfc:	e5832000 	str	r2, [r3]
 c103e00:	e59f30f8 	ldr	r3, [pc, #248]	; c103f00 <port_init+0x214>
 c103e04:	e3a020fe 	mov	r2, #254	; 0xfe
 c103e08:	e5832000 	str	r2, [r3]
 c103e0c:	e59f30f0 	ldr	r3, [pc, #240]	; c103f04 <port_init+0x218>
 c103e10:	e3e02000 	mvn	r2, #0
 c103e14:	e5832000 	str	r2, [r3]
 c103e18:	e59f30e8 	ldr	r3, [pc, #232]	; c103f08 <port_init+0x21c>
 c103e1c:	e59f20e8 	ldr	r2, [pc, #232]	; c103f0c <port_init+0x220>
 c103e20:	e5832000 	str	r2, [r3]
 c103e24:	e59f30e4 	ldr	r3, [pc, #228]	; c103f10 <port_init+0x224>
 c103e28:	e3e02000 	mvn	r2, #0
 c103e2c:	e5832000 	str	r2, [r3]
 c103e30:	e59f30dc 	ldr	r3, [pc, #220]	; c103f14 <port_init+0x228>
 c103e34:	e59f212c 	ldr	r2, [pc, #300]	; c103f68 <port_init+0x27c>
 c103e38:	e5832000 	str	r2, [r3]
 c103e3c:	e59f30d8 	ldr	r3, [pc, #216]	; c103f1c <port_init+0x230>
 c103e40:	e59f2124 	ldr	r2, [pc, #292]	; c103f6c <port_init+0x280>
 c103e44:	e5832000 	str	r2, [r3]
 c103e48:	e59f30d0 	ldr	r3, [pc, #208]	; c103f20 <port_init+0x234>
 c103e4c:	e3e02000 	mvn	r2, #0
 c103e50:	e5832000 	str	r2, [r3]
 c103e54:	e59f30c8 	ldr	r3, [pc, #200]	; c103f24 <port_init+0x238>
 c103e58:	e59f2110 	ldr	r2, [pc, #272]	; c103f70 <port_init+0x284>
 c103e5c:	e5832000 	str	r2, [r3]
 c103e60:	e59f30c4 	ldr	r3, [pc, #196]	; c103f2c <port_init+0x240>
 c103e64:	e3a020ff 	mov	r2, #255	; 0xff
 c103e68:	e5832000 	str	r2, [r3]
 c103e6c:	e59f30bc 	ldr	r3, [pc, #188]	; c103f30 <port_init+0x244>
 c103e70:	e3e02000 	mvn	r2, #0
 c103e74:	e5832000 	str	r2, [r3]
 c103e78:	e59f30b4 	ldr	r3, [pc, #180]	; c103f34 <port_init+0x248>
 c103e7c:	e59f20f0 	ldr	r2, [pc, #240]	; c103f74 <port_init+0x288>
 c103e80:	e5832000 	str	r2, [r3]
 c103e84:	e59f30b0 	ldr	r3, [pc, #176]	; c103f3c <port_init+0x250>
 c103e88:	e3a020fb 	mov	r2, #251	; 0xfb
 c103e8c:	e5832000 	str	r2, [r3]
 c103e90:	e59f30a8 	ldr	r3, [pc, #168]	; c103f40 <port_init+0x254>
 c103e94:	e3e02000 	mvn	r2, #0
 c103e98:	e5832000 	str	r2, [r3]
 c103e9c:	e59f30a0 	ldr	r3, [pc, #160]	; c103f44 <port_init+0x258>
 c103ea0:	e59f20d0 	ldr	r2, [pc, #208]	; c103f78 <port_init+0x28c>
 c103ea4:	e5832000 	str	r2, [r3]
 c103ea8:	e59f309c 	ldr	r3, [pc, #156]	; c103f4c <port_init+0x260>
 c103eac:	e3a02074 	mov	r2, #116	; 0x74
 c103eb0:	e5832000 	str	r2, [r3]
 c103eb4:	e59f3094 	ldr	r3, [pc, #148]	; c103f50 <port_init+0x264>
 c103eb8:	e3e02000 	mvn	r2, #0
 c103ebc:	e5832000 	str	r2, [r3]
 c103ec0:	e59f308c 	ldr	r3, [pc, #140]	; c103f54 <port_init+0x268>
 c103ec4:	e59f20b0 	ldr	r2, [pc, #176]	; c103f7c <port_init+0x290>
 c103ec8:	e5832000 	str	r2, [r3]
 c103ecc:	e59f3084 	ldr	r3, [pc, #132]	; c103f58 <port_init+0x26c>
 c103ed0:	e3a02030 	mov	r2, #48	; 0x30
 c103ed4:	e5832000 	str	r2, [r3]
 c103ed8:	e59f307c 	ldr	r3, [pc, #124]	; c103f5c <port_init+0x270>
 c103edc:	e3a02007 	mov	r2, #7
 c103ee0:	e5832000 	str	r2, [r3]
 c103ee4:	e59f3074 	ldr	r3, [pc, #116]	; c103f60 <port_init+0x274>
 c103ee8:	e59f2090 	ldr	r2, [pc, #144]	; c103f80 <port_init+0x294>
 c103eec:	e5832000 	str	r2, [r3]
 c103ef0:	e24bd00c 	sub	sp, fp, #12
 c103ef4:	e89d6800 	ldm	sp, {fp, sp, lr}
 c103ef8:	e12fff1e 	bx	lr
 c103efc:	01d20004 	.word	0x01d20004
 c103f00:	01d20000 	.word	0x01d20000
 c103f04:	01d2000c 	.word	0x01d2000c
 c103f08:	01d20008 	.word	0x01d20008
 c103f0c:	0000014f 	.word	0x0000014f
 c103f10:	01d20014 	.word	0x01d20014
 c103f14:	01d20010 	.word	0x01d20010
 c103f18:	55555555 	.word	0x55555555
 c103f1c:	01d20018 	.word	0x01d20018
 c103f20:	01d20020 	.word	0x01d20020
 c103f24:	01d2001c 	.word	0x01d2001c
 c103f28:	00005555 	.word	0x00005555
 c103f2c:	01d20024 	.word	0x01d20024
 c103f30:	01d2002c 	.word	0x01d2002c
 c103f34:	01d20028 	.word	0x01d20028
 c103f38:	00015555 	.word	0x00015555
 c103f3c:	01d20030 	.word	0x01d20030
 c103f40:	01d20038 	.word	0x01d20038
 c103f44:	01d20034 	.word	0x01d20034
 c103f48:	00002555 	.word	0x00002555
 c103f4c:	01d2003c 	.word	0x01d2003c
 c103f50:	01d20044 	.word	0x01d20044
 c103f54:	01d20040 	.word	0x01d20040
 c103f58:	01d20048 	.word	0x01d20048
 c103f5c:	01d2004c 	.word	0x01d2004c
 c103f60:	01d20050 	.word	0x01d20050
 c103f64:	22222222 	.word	0x22222222
 c103f68:	5ff555ff 	.word	0x5ff555ff
 c103f6c:	000094fb 	.word	0x000094fb
 c103f70:	0000aaaa 	.word	0x0000aaaa
 c103f74:	000255a9 	.word	0x000255a9
 c103f78:	0000251a 	.word	0x0000251a
 c103f7c:	0000f5ff 	.word	0x0000f5ff
 c103f80:	22000220 	.word	0x22000220

0c103f84 <install_dummy_isr>:
 c103f84:	e1a0c00d 	mov	ip, sp
 c103f88:	e92dd800 	push	{fp, ip, lr, pc}
 c103f8c:	e24cb004 	sub	fp, ip, #4
 c103f90:	e59f3184 	ldr	r3, [pc, #388]	; c10411c <install_dummy_isr+0x198>
 c103f94:	e59f2184 	ldr	r2, [pc, #388]	; c104120 <install_dummy_isr+0x19c>
 c103f98:	e5832000 	str	r2, [r3]
 c103f9c:	e59f3180 	ldr	r3, [pc, #384]	; c104124 <install_dummy_isr+0x1a0>
 c103fa0:	e59f2180 	ldr	r2, [pc, #384]	; c104128 <install_dummy_isr+0x1a4>
 c103fa4:	e5832000 	str	r2, [r3]
 c103fa8:	e59f317c 	ldr	r3, [pc, #380]	; c10412c <install_dummy_isr+0x1a8>
 c103fac:	e59f217c 	ldr	r2, [pc, #380]	; c104130 <install_dummy_isr+0x1ac>
 c103fb0:	e5832000 	str	r2, [r3]
 c103fb4:	e59f3178 	ldr	r3, [pc, #376]	; c104134 <install_dummy_isr+0x1b0>
 c103fb8:	e59f2178 	ldr	r2, [pc, #376]	; c104138 <install_dummy_isr+0x1b4>
 c103fbc:	e5832000 	str	r2, [r3]
 c103fc0:	e59f3174 	ldr	r3, [pc, #372]	; c10413c <install_dummy_isr+0x1b8>
 c103fc4:	e59f2174 	ldr	r2, [pc, #372]	; c104140 <install_dummy_isr+0x1bc>
 c103fc8:	e5832000 	str	r2, [r3]
 c103fcc:	e59f3170 	ldr	r3, [pc, #368]	; c104144 <install_dummy_isr+0x1c0>
 c103fd0:	e59f2170 	ldr	r2, [pc, #368]	; c104148 <install_dummy_isr+0x1c4>
 c103fd4:	e5832000 	str	r2, [r3]
 c103fd8:	e59f316c 	ldr	r3, [pc, #364]	; c10414c <install_dummy_isr+0x1c8>
 c103fdc:	e59f216c 	ldr	r2, [pc, #364]	; c104150 <install_dummy_isr+0x1cc>
 c103fe0:	e5832000 	str	r2, [r3]
 c103fe4:	e59f3168 	ldr	r3, [pc, #360]	; c104154 <install_dummy_isr+0x1d0>
 c103fe8:	e59f2168 	ldr	r2, [pc, #360]	; c104158 <install_dummy_isr+0x1d4>
 c103fec:	e5832000 	str	r2, [r3]
 c103ff0:	e59f3164 	ldr	r3, [pc, #356]	; c10415c <install_dummy_isr+0x1d8>
 c103ff4:	e59f2164 	ldr	r2, [pc, #356]	; c104160 <install_dummy_isr+0x1dc>
 c103ff8:	e5832000 	str	r2, [r3]
 c103ffc:	e59f3160 	ldr	r3, [pc, #352]	; c104164 <install_dummy_isr+0x1e0>
 c104000:	e59f2160 	ldr	r2, [pc, #352]	; c104168 <install_dummy_isr+0x1e4>
 c104004:	e5832000 	str	r2, [r3]
 c104008:	e59f315c 	ldr	r3, [pc, #348]	; c10416c <install_dummy_isr+0x1e8>
 c10400c:	e59f215c 	ldr	r2, [pc, #348]	; c104170 <install_dummy_isr+0x1ec>
 c104010:	e5832000 	str	r2, [r3]
 c104014:	e59f3158 	ldr	r3, [pc, #344]	; c104174 <install_dummy_isr+0x1f0>
 c104018:	e59f2158 	ldr	r2, [pc, #344]	; c104178 <install_dummy_isr+0x1f4>
 c10401c:	e5832000 	str	r2, [r3]
 c104020:	e59f3154 	ldr	r3, [pc, #340]	; c10417c <install_dummy_isr+0x1f8>
 c104024:	e59f2154 	ldr	r2, [pc, #340]	; c104180 <install_dummy_isr+0x1fc>
 c104028:	e5832000 	str	r2, [r3]
 c10402c:	e59f3150 	ldr	r3, [pc, #336]	; c104184 <install_dummy_isr+0x200>
 c104030:	e59f2150 	ldr	r2, [pc, #336]	; c104188 <install_dummy_isr+0x204>
 c104034:	e5832000 	str	r2, [r3]
 c104038:	e59f314c 	ldr	r3, [pc, #332]	; c10418c <install_dummy_isr+0x208>
 c10403c:	e59f214c 	ldr	r2, [pc, #332]	; c104190 <install_dummy_isr+0x20c>
 c104040:	e5832000 	str	r2, [r3]
 c104044:	e59f3148 	ldr	r3, [pc, #328]	; c104194 <install_dummy_isr+0x210>
 c104048:	e59f2148 	ldr	r2, [pc, #328]	; c104198 <install_dummy_isr+0x214>
 c10404c:	e5832000 	str	r2, [r3]
 c104050:	e59f3144 	ldr	r3, [pc, #324]	; c10419c <install_dummy_isr+0x218>
 c104054:	e59f2144 	ldr	r2, [pc, #324]	; c1041a0 <install_dummy_isr+0x21c>
 c104058:	e5832000 	str	r2, [r3]
 c10405c:	e59f3140 	ldr	r3, [pc, #320]	; c1041a4 <install_dummy_isr+0x220>
 c104060:	e59f2140 	ldr	r2, [pc, #320]	; c1041a8 <install_dummy_isr+0x224>
 c104064:	e5832000 	str	r2, [r3]
 c104068:	e59f313c 	ldr	r3, [pc, #316]	; c1041ac <install_dummy_isr+0x228>
 c10406c:	e59f213c 	ldr	r2, [pc, #316]	; c1041b0 <install_dummy_isr+0x22c>
 c104070:	e5832000 	str	r2, [r3]
 c104074:	e59f3138 	ldr	r3, [pc, #312]	; c1041b4 <install_dummy_isr+0x230>
 c104078:	e59f2138 	ldr	r2, [pc, #312]	; c1041b8 <install_dummy_isr+0x234>
 c10407c:	e5832000 	str	r2, [r3]
 c104080:	e59f3134 	ldr	r3, [pc, #308]	; c1041bc <install_dummy_isr+0x238>
 c104084:	e59f2134 	ldr	r2, [pc, #308]	; c1041c0 <install_dummy_isr+0x23c>
 c104088:	e5832000 	str	r2, [r3]
 c10408c:	e59f3130 	ldr	r3, [pc, #304]	; c1041c4 <install_dummy_isr+0x240>
 c104090:	e59f2130 	ldr	r2, [pc, #304]	; c1041c8 <install_dummy_isr+0x244>
 c104094:	e5832000 	str	r2, [r3]
 c104098:	e59f312c 	ldr	r3, [pc, #300]	; c1041cc <install_dummy_isr+0x248>
 c10409c:	e59f212c 	ldr	r2, [pc, #300]	; c1041d0 <install_dummy_isr+0x24c>
 c1040a0:	e5832000 	str	r2, [r3]
 c1040a4:	e59f3128 	ldr	r3, [pc, #296]	; c1041d4 <install_dummy_isr+0x250>
 c1040a8:	e59f2128 	ldr	r2, [pc, #296]	; c1041d8 <install_dummy_isr+0x254>
 c1040ac:	e5832000 	str	r2, [r3]
 c1040b0:	e59f3124 	ldr	r3, [pc, #292]	; c1041dc <install_dummy_isr+0x258>
 c1040b4:	e59f2124 	ldr	r2, [pc, #292]	; c1041e0 <install_dummy_isr+0x25c>
 c1040b8:	e5832000 	str	r2, [r3]
 c1040bc:	e59f3120 	ldr	r3, [pc, #288]	; c1041e4 <install_dummy_isr+0x260>
 c1040c0:	e59f2120 	ldr	r2, [pc, #288]	; c1041e8 <install_dummy_isr+0x264>
 c1040c4:	e5832000 	str	r2, [r3]
 c1040c8:	e59f311c 	ldr	r3, [pc, #284]	; c1041ec <install_dummy_isr+0x268>
 c1040cc:	e59f211c 	ldr	r2, [pc, #284]	; c1041f0 <install_dummy_isr+0x26c>
 c1040d0:	e5832000 	str	r2, [r3]
 c1040d4:	e59f3118 	ldr	r3, [pc, #280]	; c1041f4 <install_dummy_isr+0x270>
 c1040d8:	e59f2118 	ldr	r2, [pc, #280]	; c1041f8 <install_dummy_isr+0x274>
 c1040dc:	e5832000 	str	r2, [r3]
 c1040e0:	e59f3114 	ldr	r3, [pc, #276]	; c1041fc <install_dummy_isr+0x278>
 c1040e4:	e59f2114 	ldr	r2, [pc, #276]	; c104200 <install_dummy_isr+0x27c>
 c1040e8:	e5832000 	str	r2, [r3]
 c1040ec:	e59f3110 	ldr	r3, [pc, #272]	; c104204 <install_dummy_isr+0x280>
 c1040f0:	e59f2110 	ldr	r2, [pc, #272]	; c104208 <install_dummy_isr+0x284>
 c1040f4:	e5832000 	str	r2, [r3]
 c1040f8:	e59f310c 	ldr	r3, [pc, #268]	; c10420c <install_dummy_isr+0x288>
 c1040fc:	e59f210c 	ldr	r2, [pc, #268]	; c104210 <install_dummy_isr+0x28c>
 c104100:	e5832000 	str	r2, [r3]
 c104104:	e59f3108 	ldr	r3, [pc, #264]	; c104214 <install_dummy_isr+0x290>
 c104108:	e59f2108 	ldr	r2, [pc, #264]	; c104218 <install_dummy_isr+0x294>
 c10410c:	e5832000 	str	r2, [r3]
 c104110:	e24bd00c 	sub	sp, fp, #12
 c104114:	e89d6800 	ldm	sp, {fp, sp, lr}
 c104118:	e12fff1e 	bx	lr
 c10411c:	0c7fff08 	.word	0x0c7fff08
 c104120:	0c10421c 	.word	0x0c10421c
 c104124:	0c7fff04 	.word	0x0c7fff04
 c104128:	0c10425c 	.word	0x0c10425c
 c10412c:	0c7fff18 	.word	0x0c7fff18
 c104130:	0c10429c 	.word	0x0c10429c
 c104134:	0c7fff1c 	.word	0x0c7fff1c
 c104138:	0c1042e4 	.word	0x0c1042e4
 c10413c:	0c7fff0c 	.word	0x0c7fff0c
 c104140:	0c10432c 	.word	0x0c10432c
 c104144:	0c7fff10 	.word	0x0c7fff10
 c104148:	0c104374 	.word	0x0c104374
 c10414c:	0c7fff20 	.word	0x0c7fff20
 c104150:	0c1043bc 	.word	0x0c1043bc
 c104154:	0c7fff24 	.word	0x0c7fff24
 c104158:	0c104404 	.word	0x0c104404
 c10415c:	0c7fff28 	.word	0x0c7fff28
 c104160:	0c10444c 	.word	0x0c10444c
 c104164:	0c7fff2c 	.word	0x0c7fff2c
 c104168:	0c104494 	.word	0x0c104494
 c10416c:	0c7fff30 	.word	0x0c7fff30
 c104170:	0c1044dc 	.word	0x0c1044dc
 c104174:	0c7fff34 	.word	0x0c7fff34
 c104178:	0c104524 	.word	0x0c104524
 c10417c:	0c7fff38 	.word	0x0c7fff38
 c104180:	0c10456c 	.word	0x0c10456c
 c104184:	0c7fff3c 	.word	0x0c7fff3c
 c104188:	0c1045b4 	.word	0x0c1045b4
 c10418c:	0c7fff40 	.word	0x0c7fff40
 c104190:	0c1045fc 	.word	0x0c1045fc
 c104194:	0c7fff44 	.word	0x0c7fff44
 c104198:	0c104644 	.word	0x0c104644
 c10419c:	0c7fff48 	.word	0x0c7fff48
 c1041a0:	0c10468c 	.word	0x0c10468c
 c1041a4:	0c7fff4c 	.word	0x0c7fff4c
 c1041a8:	0c1046d4 	.word	0x0c1046d4
 c1041ac:	0c7fff50 	.word	0x0c7fff50
 c1041b0:	0c10471c 	.word	0x0c10471c
 c1041b4:	0c7fff54 	.word	0x0c7fff54
 c1041b8:	0c104764 	.word	0x0c104764
 c1041bc:	0c7fff58 	.word	0x0c7fff58
 c1041c0:	0c1047ac 	.word	0x0c1047ac
 c1041c4:	0c7fff5c 	.word	0x0c7fff5c
 c1041c8:	0c1047f4 	.word	0x0c1047f4
 c1041cc:	0c7fff60 	.word	0x0c7fff60
 c1041d0:	0c10483c 	.word	0x0c10483c
 c1041d4:	0c7fff64 	.word	0x0c7fff64
 c1041d8:	0c104884 	.word	0x0c104884
 c1041dc:	0c7fff68 	.word	0x0c7fff68
 c1041e0:	0c1048cc 	.word	0x0c1048cc
 c1041e4:	0c7fff6c 	.word	0x0c7fff6c
 c1041e8:	0c104914 	.word	0x0c104914
 c1041ec:	0c7fff70 	.word	0x0c7fff70
 c1041f0:	0c10495c 	.word	0x0c10495c
 c1041f4:	0c7fff74 	.word	0x0c7fff74
 c1041f8:	0c1049a4 	.word	0x0c1049a4
 c1041fc:	0c7fff78 	.word	0x0c7fff78
 c104200:	0c1049ec 	.word	0x0c1049ec
 c104204:	0c7fff7c 	.word	0x0c7fff7c
 c104208:	0c104a34 	.word	0x0c104a34
 c10420c:	0c7fff80 	.word	0x0c7fff80
 c104210:	0c104a7c 	.word	0x0c104a7c
 c104214:	0c7fff84 	.word	0x0c7fff84
 c104218:	0c104ac4 	.word	0x0c104ac4

0c10421c <isr_SWI_dummy>:
 c10421c:	e52dc004 	push	{ip}		; (str ip, [sp, #-4]!)
 c104220:	e1a0c00d 	mov	ip, sp
 c104224:	e92dd81f 	push	{r0, r1, r2, r3, r4, fp, ip, lr, pc}
 c104228:	e24cb004 	sub	fp, ip, #4
 c10422c:	e24dd00c 	sub	sp, sp, #12
 c104230:	e1a0400e 	mov	r4, lr
 c104234:	e50b4028 	str	r4, [fp, #-40]	; 0xffffffd8
 c104238:	e3a00000 	mov	r0, #0
 c10423c:	e59f1014 	ldr	r1, [pc, #20]	; c104258 <isr_SWI_dummy+0x3c>
 c104240:	e51b2028 	ldr	r2, [fp, #-40]	; 0xffffffd8
 c104244:	eb000378 	bl	c10502c <fatalerror>
 c104248:	e24bd020 	sub	sp, fp, #32
 c10424c:	e89d681f 	ldm	sp, {r0, r1, r2, r3, r4, fp, sp, lr}
 c104250:	e49dc004 	pop	{ip}		; (ldr ip, [sp], #4)
 c104254:	e1b0f00e 	movs	pc, lr
 c104258:	0c107630 	.word	0x0c107630

0c10425c <isr_UNDEF_dummy>:
 c10425c:	e52dc004 	push	{ip}		; (str ip, [sp, #-4]!)
 c104260:	e1a0c00d 	mov	ip, sp
 c104264:	e92dd81f 	push	{r0, r1, r2, r3, r4, fp, ip, lr, pc}
 c104268:	e24cb004 	sub	fp, ip, #4
 c10426c:	e24dd00c 	sub	sp, sp, #12
 c104270:	e1a0400e 	mov	r4, lr
 c104274:	e50b4028 	str	r4, [fp, #-40]	; 0xffffffd8
 c104278:	e3a00001 	mov	r0, #1
 c10427c:	e59f1014 	ldr	r1, [pc, #20]	; c104298 <isr_UNDEF_dummy+0x3c>
 c104280:	e51b2028 	ldr	r2, [fp, #-40]	; 0xffffffd8
 c104284:	eb000368 	bl	c10502c <fatalerror>
 c104288:	e24bd020 	sub	sp, fp, #32
 c10428c:	e89d681f 	ldm	sp, {r0, r1, r2, r3, r4, fp, sp, lr}
 c104290:	e49dc004 	pop	{ip}		; (ldr ip, [sp], #4)
 c104294:	e1b0f00e 	movs	pc, lr
 c104298:	0c10764c 	.word	0x0c10764c

0c10429c <isr_IRQ_dummy>:
 c10429c:	e52dc004 	push	{ip}		; (str ip, [sp, #-4]!)
 c1042a0:	e1a0c00d 	mov	ip, sp
 c1042a4:	e92dd81f 	push	{r0, r1, r2, r3, r4, fp, ip, lr, pc}
 c1042a8:	e24cb004 	sub	fp, ip, #4
 c1042ac:	e24dd00c 	sub	sp, sp, #12
 c1042b0:	e1a0400e 	mov	r4, lr
 c1042b4:	e50b4028 	str	r4, [fp, #-40]	; 0xffffffd8
 c1042b8:	e51b3028 	ldr	r3, [fp, #-40]	; 0xffffffd8
 c1042bc:	e2433004 	sub	r3, r3, #4
 c1042c0:	e3a00002 	mov	r0, #2
 c1042c4:	e59f1014 	ldr	r1, [pc, #20]	; c1042e0 <isr_IRQ_dummy+0x44>
 c1042c8:	e1a02003 	mov	r2, r3
 c1042cc:	eb000356 	bl	c10502c <fatalerror>
 c1042d0:	e24bd020 	sub	sp, fp, #32
 c1042d4:	e89d681f 	ldm	sp, {r0, r1, r2, r3, r4, fp, sp, lr}
 c1042d8:	e49dc004 	pop	{ip}		; (ldr ip, [sp], #4)
 c1042dc:	e25ef004 	subs	pc, lr, #4
 c1042e0:	0c107668 	.word	0x0c107668

0c1042e4 <isr_FIQ_dummy>:
 c1042e4:	e52dc004 	push	{ip}		; (str ip, [sp, #-4]!)
 c1042e8:	e1a0c00d 	mov	ip, sp
 c1042ec:	e92dd81f 	push	{r0, r1, r2, r3, r4, fp, ip, lr, pc}
 c1042f0:	e24cb004 	sub	fp, ip, #4
 c1042f4:	e24dd00c 	sub	sp, sp, #12
 c1042f8:	e1a0400e 	mov	r4, lr
 c1042fc:	e50b4028 	str	r4, [fp, #-40]	; 0xffffffd8
 c104300:	e51b3028 	ldr	r3, [fp, #-40]	; 0xffffffd8
 c104304:	e2433004 	sub	r3, r3, #4
 c104308:	e3a00003 	mov	r0, #3
 c10430c:	e59f1014 	ldr	r1, [pc, #20]	; c104328 <isr_FIQ_dummy+0x44>
 c104310:	e1a02003 	mov	r2, r3
 c104314:	eb000344 	bl	c10502c <fatalerror>
 c104318:	e24bd020 	sub	sp, fp, #32
 c10431c:	e89d681f 	ldm	sp, {r0, r1, r2, r3, r4, fp, sp, lr}
 c104320:	e49dc004 	pop	{ip}		; (ldr ip, [sp], #4)
 c104324:	e25ef004 	subs	pc, lr, #4
 c104328:	0c107684 	.word	0x0c107684

0c10432c <isr_PABORT_dummy>:
 c10432c:	e52dc004 	push	{ip}		; (str ip, [sp, #-4]!)
 c104330:	e1a0c00d 	mov	ip, sp
 c104334:	e92dd81f 	push	{r0, r1, r2, r3, r4, fp, ip, lr, pc}
 c104338:	e24cb004 	sub	fp, ip, #4
 c10433c:	e24dd00c 	sub	sp, sp, #12
 c104340:	e1a0400e 	mov	r4, lr
 c104344:	e50b4028 	str	r4, [fp, #-40]	; 0xffffffd8
 c104348:	e51b3028 	ldr	r3, [fp, #-40]	; 0xffffffd8
 c10434c:	e2433004 	sub	r3, r3, #4
 c104350:	e3a00004 	mov	r0, #4
 c104354:	e59f1014 	ldr	r1, [pc, #20]	; c104370 <isr_PABORT_dummy+0x44>
 c104358:	e1a02003 	mov	r2, r3
 c10435c:	eb000332 	bl	c10502c <fatalerror>
 c104360:	e24bd020 	sub	sp, fp, #32
 c104364:	e89d681f 	ldm	sp, {r0, r1, r2, r3, r4, fp, sp, lr}
 c104368:	e49dc004 	pop	{ip}		; (ldr ip, [sp], #4)
 c10436c:	e25ef004 	subs	pc, lr, #4
 c104370:	0c1076a0 	.word	0x0c1076a0

0c104374 <isr_DABORT_dummy>:
 c104374:	e52dc004 	push	{ip}		; (str ip, [sp, #-4]!)
 c104378:	e1a0c00d 	mov	ip, sp
 c10437c:	e92dd81f 	push	{r0, r1, r2, r3, r4, fp, ip, lr, pc}
 c104380:	e24cb004 	sub	fp, ip, #4
 c104384:	e24dd00c 	sub	sp, sp, #12
 c104388:	e1a0400e 	mov	r4, lr
 c10438c:	e50b4028 	str	r4, [fp, #-40]	; 0xffffffd8
 c104390:	e51b3028 	ldr	r3, [fp, #-40]	; 0xffffffd8
 c104394:	e2433008 	sub	r3, r3, #8
 c104398:	e3a00005 	mov	r0, #5
 c10439c:	e59f1014 	ldr	r1, [pc, #20]	; c1043b8 <isr_DABORT_dummy+0x44>
 c1043a0:	e1a02003 	mov	r2, r3
 c1043a4:	eb000320 	bl	c10502c <fatalerror>
 c1043a8:	e24bd020 	sub	sp, fp, #32
 c1043ac:	e89d681f 	ldm	sp, {r0, r1, r2, r3, r4, fp, sp, lr}
 c1043b0:	e49dc004 	pop	{ip}		; (ldr ip, [sp], #4)
 c1043b4:	e25ef004 	subs	pc, lr, #4
 c1043b8:	0c1076bc 	.word	0x0c1076bc

0c1043bc <isr_ADC_dummy>:
 c1043bc:	e52dc004 	push	{ip}		; (str ip, [sp, #-4]!)
 c1043c0:	e1a0c00d 	mov	ip, sp
 c1043c4:	e92dd81f 	push	{r0, r1, r2, r3, r4, fp, ip, lr, pc}
 c1043c8:	e24cb004 	sub	fp, ip, #4
 c1043cc:	e24dd00c 	sub	sp, sp, #12
 c1043d0:	e1a0400e 	mov	r4, lr
 c1043d4:	e50b4028 	str	r4, [fp, #-40]	; 0xffffffd8
 c1043d8:	e51b3028 	ldr	r3, [fp, #-40]	; 0xffffffd8
 c1043dc:	e2433004 	sub	r3, r3, #4
 c1043e0:	e3a0000b 	mov	r0, #11
 c1043e4:	e59f1014 	ldr	r1, [pc, #20]	; c104400 <isr_ADC_dummy+0x44>
 c1043e8:	e1a02003 	mov	r2, r3
 c1043ec:	eb00030e 	bl	c10502c <fatalerror>
 c1043f0:	e24bd020 	sub	sp, fp, #32
 c1043f4:	e89d681f 	ldm	sp, {r0, r1, r2, r3, r4, fp, sp, lr}
 c1043f8:	e49dc004 	pop	{ip}		; (ldr ip, [sp], #4)
 c1043fc:	e25ef004 	subs	pc, lr, #4
 c104400:	0c1076d8 	.word	0x0c1076d8

0c104404 <isr_RTC_dummy>:
 c104404:	e52dc004 	push	{ip}		; (str ip, [sp, #-4]!)
 c104408:	e1a0c00d 	mov	ip, sp
 c10440c:	e92dd81f 	push	{r0, r1, r2, r3, r4, fp, ip, lr, pc}
 c104410:	e24cb004 	sub	fp, ip, #4
 c104414:	e24dd00c 	sub	sp, sp, #12
 c104418:	e1a0400e 	mov	r4, lr
 c10441c:	e50b4028 	str	r4, [fp, #-40]	; 0xffffffd8
 c104420:	e51b3028 	ldr	r3, [fp, #-40]	; 0xffffffd8
 c104424:	e2433004 	sub	r3, r3, #4
 c104428:	e3a0000a 	mov	r0, #10
 c10442c:	e59f1014 	ldr	r1, [pc, #20]	; c104448 <isr_RTC_dummy+0x44>
 c104430:	e1a02003 	mov	r2, r3
 c104434:	eb0002fc 	bl	c10502c <fatalerror>
 c104438:	e24bd020 	sub	sp, fp, #32
 c10443c:	e89d681f 	ldm	sp, {r0, r1, r2, r3, r4, fp, sp, lr}
 c104440:	e49dc004 	pop	{ip}		; (ldr ip, [sp], #4)
 c104444:	e25ef004 	subs	pc, lr, #4
 c104448:	0c1076f4 	.word	0x0c1076f4

0c10444c <isr_UTXD1_dummy>:
 c10444c:	e52dc004 	push	{ip}		; (str ip, [sp, #-4]!)
 c104450:	e1a0c00d 	mov	ip, sp
 c104454:	e92dd81f 	push	{r0, r1, r2, r3, r4, fp, ip, lr, pc}
 c104458:	e24cb004 	sub	fp, ip, #4
 c10445c:	e24dd00c 	sub	sp, sp, #12
 c104460:	e1a0400e 	mov	r4, lr
 c104464:	e50b4028 	str	r4, [fp, #-40]	; 0xffffffd8
 c104468:	e51b3028 	ldr	r3, [fp, #-40]	; 0xffffffd8
 c10446c:	e2433004 	sub	r3, r3, #4
 c104470:	e3a0000c 	mov	r0, #12
 c104474:	e59f1014 	ldr	r1, [pc, #20]	; c104490 <isr_UTXD1_dummy+0x44>
 c104478:	e1a02003 	mov	r2, r3
 c10447c:	eb0002ea 	bl	c10502c <fatalerror>
 c104480:	e24bd020 	sub	sp, fp, #32
 c104484:	e89d681f 	ldm	sp, {r0, r1, r2, r3, r4, fp, sp, lr}
 c104488:	e49dc004 	pop	{ip}		; (ldr ip, [sp], #4)
 c10448c:	e25ef004 	subs	pc, lr, #4
 c104490:	0c107710 	.word	0x0c107710

0c104494 <isr_UTXD0_dummy>:
 c104494:	e52dc004 	push	{ip}		; (str ip, [sp, #-4]!)
 c104498:	e1a0c00d 	mov	ip, sp
 c10449c:	e92dd81f 	push	{r0, r1, r2, r3, r4, fp, ip, lr, pc}
 c1044a0:	e24cb004 	sub	fp, ip, #4
 c1044a4:	e24dd00c 	sub	sp, sp, #12
 c1044a8:	e1a0400e 	mov	r4, lr
 c1044ac:	e50b4028 	str	r4, [fp, #-40]	; 0xffffffd8
 c1044b0:	e51b3028 	ldr	r3, [fp, #-40]	; 0xffffffd8
 c1044b4:	e2433004 	sub	r3, r3, #4
 c1044b8:	e3a00009 	mov	r0, #9
 c1044bc:	e59f1014 	ldr	r1, [pc, #20]	; c1044d8 <isr_UTXD0_dummy+0x44>
 c1044c0:	e1a02003 	mov	r2, r3
 c1044c4:	eb0002d8 	bl	c10502c <fatalerror>
 c1044c8:	e24bd020 	sub	sp, fp, #32
 c1044cc:	e89d681f 	ldm	sp, {r0, r1, r2, r3, r4, fp, sp, lr}
 c1044d0:	e49dc004 	pop	{ip}		; (ldr ip, [sp], #4)
 c1044d4:	e25ef004 	subs	pc, lr, #4
 c1044d8:	0c10772c 	.word	0x0c10772c

0c1044dc <isr_SIO_dummy>:
 c1044dc:	e52dc004 	push	{ip}		; (str ip, [sp, #-4]!)
 c1044e0:	e1a0c00d 	mov	ip, sp
 c1044e4:	e92dd81f 	push	{r0, r1, r2, r3, r4, fp, ip, lr, pc}
 c1044e8:	e24cb004 	sub	fp, ip, #4
 c1044ec:	e24dd00c 	sub	sp, sp, #12
 c1044f0:	e1a0400e 	mov	r4, lr
 c1044f4:	e50b4028 	str	r4, [fp, #-40]	; 0xffffffd8
 c1044f8:	e51b3028 	ldr	r3, [fp, #-40]	; 0xffffffd8
 c1044fc:	e2433004 	sub	r3, r3, #4
 c104500:	e3a0000f 	mov	r0, #15
 c104504:	e59f1014 	ldr	r1, [pc, #20]	; c104520 <isr_SIO_dummy+0x44>
 c104508:	e1a02003 	mov	r2, r3
 c10450c:	eb0002c6 	bl	c10502c <fatalerror>
 c104510:	e24bd020 	sub	sp, fp, #32
 c104514:	e89d681f 	ldm	sp, {r0, r1, r2, r3, r4, fp, sp, lr}
 c104518:	e49dc004 	pop	{ip}		; (ldr ip, [sp], #4)
 c10451c:	e25ef004 	subs	pc, lr, #4
 c104520:	0c107748 	.word	0x0c107748

0c104524 <isr_IIC_dummy>:
 c104524:	e52dc004 	push	{ip}		; (str ip, [sp, #-4]!)
 c104528:	e1a0c00d 	mov	ip, sp
 c10452c:	e92dd81f 	push	{r0, r1, r2, r3, r4, fp, ip, lr, pc}
 c104530:	e24cb004 	sub	fp, ip, #4
 c104534:	e24dd00c 	sub	sp, sp, #12
 c104538:	e1a0400e 	mov	r4, lr
 c10453c:	e50b4028 	str	r4, [fp, #-40]	; 0xffffffd8
 c104540:	e51b3028 	ldr	r3, [fp, #-40]	; 0xffffffd8
 c104544:	e2433004 	sub	r3, r3, #4
 c104548:	e3a0000c 	mov	r0, #12
 c10454c:	e59f1014 	ldr	r1, [pc, #20]	; c104568 <isr_IIC_dummy+0x44>
 c104550:	e1a02003 	mov	r2, r3
 c104554:	eb0002b4 	bl	c10502c <fatalerror>
 c104558:	e24bd020 	sub	sp, fp, #32
 c10455c:	e89d681f 	ldm	sp, {r0, r1, r2, r3, r4, fp, sp, lr}
 c104560:	e49dc004 	pop	{ip}		; (ldr ip, [sp], #4)
 c104564:	e25ef004 	subs	pc, lr, #4
 c104568:	0c107764 	.word	0x0c107764

0c10456c <isr_URXD1_dummy>:
 c10456c:	e52dc004 	push	{ip}		; (str ip, [sp, #-4]!)
 c104570:	e1a0c00d 	mov	ip, sp
 c104574:	e92dd81f 	push	{r0, r1, r2, r3, r4, fp, ip, lr, pc}
 c104578:	e24cb004 	sub	fp, ip, #4
 c10457c:	e24dd00c 	sub	sp, sp, #12
 c104580:	e1a0400e 	mov	r4, lr
 c104584:	e50b4028 	str	r4, [fp, #-40]	; 0xffffffd8
 c104588:	e51b3028 	ldr	r3, [fp, #-40]	; 0xffffffd8
 c10458c:	e2433004 	sub	r3, r3, #4
 c104590:	e3a0000c 	mov	r0, #12
 c104594:	e59f1014 	ldr	r1, [pc, #20]	; c1045b0 <isr_URXD1_dummy+0x44>
 c104598:	e1a02003 	mov	r2, r3
 c10459c:	eb0002a2 	bl	c10502c <fatalerror>
 c1045a0:	e24bd020 	sub	sp, fp, #32
 c1045a4:	e89d681f 	ldm	sp, {r0, r1, r2, r3, r4, fp, sp, lr}
 c1045a8:	e49dc004 	pop	{ip}		; (ldr ip, [sp], #4)
 c1045ac:	e25ef004 	subs	pc, lr, #4
 c1045b0:	0c107780 	.word	0x0c107780

0c1045b4 <isr_URXD0_dummy>:
 c1045b4:	e52dc004 	push	{ip}		; (str ip, [sp, #-4]!)
 c1045b8:	e1a0c00d 	mov	ip, sp
 c1045bc:	e92dd81f 	push	{r0, r1, r2, r3, r4, fp, ip, lr, pc}
 c1045c0:	e24cb004 	sub	fp, ip, #4
 c1045c4:	e24dd00c 	sub	sp, sp, #12
 c1045c8:	e1a0400e 	mov	r4, lr
 c1045cc:	e50b4028 	str	r4, [fp, #-40]	; 0xffffffd8
 c1045d0:	e51b3028 	ldr	r3, [fp, #-40]	; 0xffffffd8
 c1045d4:	e2433004 	sub	r3, r3, #4
 c1045d8:	e3a00008 	mov	r0, #8
 c1045dc:	e59f1014 	ldr	r1, [pc, #20]	; c1045f8 <isr_URXD0_dummy+0x44>
 c1045e0:	e1a02003 	mov	r2, r3
 c1045e4:	eb000290 	bl	c10502c <fatalerror>
 c1045e8:	e24bd020 	sub	sp, fp, #32
 c1045ec:	e89d681f 	ldm	sp, {r0, r1, r2, r3, r4, fp, sp, lr}
 c1045f0:	e49dc004 	pop	{ip}		; (ldr ip, [sp], #4)
 c1045f4:	e25ef004 	subs	pc, lr, #4
 c1045f8:	0c10779c 	.word	0x0c10779c

0c1045fc <isr_TIMER5_dummy>:
 c1045fc:	e52dc004 	push	{ip}		; (str ip, [sp, #-4]!)
 c104600:	e1a0c00d 	mov	ip, sp
 c104604:	e92dd81f 	push	{r0, r1, r2, r3, r4, fp, ip, lr, pc}
 c104608:	e24cb004 	sub	fp, ip, #4
 c10460c:	e24dd00c 	sub	sp, sp, #12
 c104610:	e1a0400e 	mov	r4, lr
 c104614:	e50b4028 	str	r4, [fp, #-40]	; 0xffffffd8
 c104618:	e51b3028 	ldr	r3, [fp, #-40]	; 0xffffffd8
 c10461c:	e2433004 	sub	r3, r3, #4
 c104620:	e3a0000e 	mov	r0, #14
 c104624:	e59f1014 	ldr	r1, [pc, #20]	; c104640 <isr_TIMER5_dummy+0x44>
 c104628:	e1a02003 	mov	r2, r3
 c10462c:	eb00027e 	bl	c10502c <fatalerror>
 c104630:	e24bd020 	sub	sp, fp, #32
 c104634:	e89d681f 	ldm	sp, {r0, r1, r2, r3, r4, fp, sp, lr}
 c104638:	e49dc004 	pop	{ip}		; (ldr ip, [sp], #4)
 c10463c:	e25ef004 	subs	pc, lr, #4
 c104640:	0c1077b8 	.word	0x0c1077b8

0c104644 <isr_TIMER4_dummy>:
 c104644:	e52dc004 	push	{ip}		; (str ip, [sp, #-4]!)
 c104648:	e1a0c00d 	mov	ip, sp
 c10464c:	e92dd81f 	push	{r0, r1, r2, r3, r4, fp, ip, lr, pc}
 c104650:	e24cb004 	sub	fp, ip, #4
 c104654:	e24dd00c 	sub	sp, sp, #12
 c104658:	e1a0400e 	mov	r4, lr
 c10465c:	e50b4028 	str	r4, [fp, #-40]	; 0xffffffd8
 c104660:	e51b3028 	ldr	r3, [fp, #-40]	; 0xffffffd8
 c104664:	e2433004 	sub	r3, r3, #4
 c104668:	e3a0000e 	mov	r0, #14
 c10466c:	e59f1014 	ldr	r1, [pc, #20]	; c104688 <isr_TIMER4_dummy+0x44>
 c104670:	e1a02003 	mov	r2, r3
 c104674:	eb00026c 	bl	c10502c <fatalerror>
 c104678:	e24bd020 	sub	sp, fp, #32
 c10467c:	e89d681f 	ldm	sp, {r0, r1, r2, r3, r4, fp, sp, lr}
 c104680:	e49dc004 	pop	{ip}		; (ldr ip, [sp], #4)
 c104684:	e25ef004 	subs	pc, lr, #4
 c104688:	0c1077d4 	.word	0x0c1077d4

0c10468c <isr_TIMER3_dummy>:
 c10468c:	e52dc004 	push	{ip}		; (str ip, [sp, #-4]!)
 c104690:	e1a0c00d 	mov	ip, sp
 c104694:	e92dd81f 	push	{r0, r1, r2, r3, r4, fp, ip, lr, pc}
 c104698:	e24cb004 	sub	fp, ip, #4
 c10469c:	e24dd00c 	sub	sp, sp, #12
 c1046a0:	e1a0400e 	mov	r4, lr
 c1046a4:	e50b4028 	str	r4, [fp, #-40]	; 0xffffffd8
 c1046a8:	e51b3028 	ldr	r3, [fp, #-40]	; 0xffffffd8
 c1046ac:	e2433004 	sub	r3, r3, #4
 c1046b0:	e3a0000e 	mov	r0, #14
 c1046b4:	e59f1014 	ldr	r1, [pc, #20]	; c1046d0 <isr_TIMER3_dummy+0x44>
 c1046b8:	e1a02003 	mov	r2, r3
 c1046bc:	eb00025a 	bl	c10502c <fatalerror>
 c1046c0:	e24bd020 	sub	sp, fp, #32
 c1046c4:	e89d681f 	ldm	sp, {r0, r1, r2, r3, r4, fp, sp, lr}
 c1046c8:	e49dc004 	pop	{ip}		; (ldr ip, [sp], #4)
 c1046cc:	e25ef004 	subs	pc, lr, #4
 c1046d0:	0c1077f0 	.word	0x0c1077f0

0c1046d4 <isr_TIMER2_dummy>:
 c1046d4:	e52dc004 	push	{ip}		; (str ip, [sp, #-4]!)
 c1046d8:	e1a0c00d 	mov	ip, sp
 c1046dc:	e92dd81f 	push	{r0, r1, r2, r3, r4, fp, ip, lr, pc}
 c1046e0:	e24cb004 	sub	fp, ip, #4
 c1046e4:	e24dd00c 	sub	sp, sp, #12
 c1046e8:	e1a0400e 	mov	r4, lr
 c1046ec:	e50b4028 	str	r4, [fp, #-40]	; 0xffffffd8
 c1046f0:	e51b3028 	ldr	r3, [fp, #-40]	; 0xffffffd8
 c1046f4:	e2433004 	sub	r3, r3, #4
 c1046f8:	e3a0000e 	mov	r0, #14
 c1046fc:	e59f1014 	ldr	r1, [pc, #20]	; c104718 <isr_TIMER2_dummy+0x44>
 c104700:	e1a02003 	mov	r2, r3
 c104704:	eb000248 	bl	c10502c <fatalerror>
 c104708:	e24bd020 	sub	sp, fp, #32
 c10470c:	e89d681f 	ldm	sp, {r0, r1, r2, r3, r4, fp, sp, lr}
 c104710:	e49dc004 	pop	{ip}		; (ldr ip, [sp], #4)
 c104714:	e25ef004 	subs	pc, lr, #4
 c104718:	0c10780c 	.word	0x0c10780c

0c10471c <isr_TIMER1_dummy>:
 c10471c:	e52dc004 	push	{ip}		; (str ip, [sp, #-4]!)
 c104720:	e1a0c00d 	mov	ip, sp
 c104724:	e92dd81f 	push	{r0, r1, r2, r3, r4, fp, ip, lr, pc}
 c104728:	e24cb004 	sub	fp, ip, #4
 c10472c:	e24dd00c 	sub	sp, sp, #12
 c104730:	e1a0400e 	mov	r4, lr
 c104734:	e50b4028 	str	r4, [fp, #-40]	; 0xffffffd8
 c104738:	e51b3028 	ldr	r3, [fp, #-40]	; 0xffffffd8
 c10473c:	e2433004 	sub	r3, r3, #4
 c104740:	e3a0000e 	mov	r0, #14
 c104744:	e59f1014 	ldr	r1, [pc, #20]	; c104760 <isr_TIMER1_dummy+0x44>
 c104748:	e1a02003 	mov	r2, r3
 c10474c:	eb000236 	bl	c10502c <fatalerror>
 c104750:	e24bd020 	sub	sp, fp, #32
 c104754:	e89d681f 	ldm	sp, {r0, r1, r2, r3, r4, fp, sp, lr}
 c104758:	e49dc004 	pop	{ip}		; (ldr ip, [sp], #4)
 c10475c:	e25ef004 	subs	pc, lr, #4
 c104760:	0c107828 	.word	0x0c107828

0c104764 <isr_TIMER0_dummy>:
 c104764:	e52dc004 	push	{ip}		; (str ip, [sp, #-4]!)
 c104768:	e1a0c00d 	mov	ip, sp
 c10476c:	e92dd81f 	push	{r0, r1, r2, r3, r4, fp, ip, lr, pc}
 c104770:	e24cb004 	sub	fp, ip, #4
 c104774:	e24dd00c 	sub	sp, sp, #12
 c104778:	e1a0400e 	mov	r4, lr
 c10477c:	e50b4028 	str	r4, [fp, #-40]	; 0xffffffd8
 c104780:	e51b3028 	ldr	r3, [fp, #-40]	; 0xffffffd8
 c104784:	e2433004 	sub	r3, r3, #4
 c104788:	e3a0000e 	mov	r0, #14
 c10478c:	e59f1014 	ldr	r1, [pc, #20]	; c1047a8 <isr_TIMER0_dummy+0x44>
 c104790:	e1a02003 	mov	r2, r3
 c104794:	eb000224 	bl	c10502c <fatalerror>
 c104798:	e24bd020 	sub	sp, fp, #32
 c10479c:	e89d681f 	ldm	sp, {r0, r1, r2, r3, r4, fp, sp, lr}
 c1047a0:	e49dc004 	pop	{ip}		; (ldr ip, [sp], #4)
 c1047a4:	e25ef004 	subs	pc, lr, #4
 c1047a8:	0c107844 	.word	0x0c107844

0c1047ac <isr_UERR01_dummy>:
 c1047ac:	e52dc004 	push	{ip}		; (str ip, [sp, #-4]!)
 c1047b0:	e1a0c00d 	mov	ip, sp
 c1047b4:	e92dd81f 	push	{r0, r1, r2, r3, r4, fp, ip, lr, pc}
 c1047b8:	e24cb004 	sub	fp, ip, #4
 c1047bc:	e24dd00c 	sub	sp, sp, #12
 c1047c0:	e1a0400e 	mov	r4, lr
 c1047c4:	e50b4028 	str	r4, [fp, #-40]	; 0xffffffd8
 c1047c8:	e51b3028 	ldr	r3, [fp, #-40]	; 0xffffffd8
 c1047cc:	e2433004 	sub	r3, r3, #4
 c1047d0:	e3a0000c 	mov	r0, #12
 c1047d4:	e59f1014 	ldr	r1, [pc, #20]	; c1047f0 <isr_UERR01_dummy+0x44>
 c1047d8:	e1a02003 	mov	r2, r3
 c1047dc:	eb000212 	bl	c10502c <fatalerror>
 c1047e0:	e24bd020 	sub	sp, fp, #32
 c1047e4:	e89d681f 	ldm	sp, {r0, r1, r2, r3, r4, fp, sp, lr}
 c1047e8:	e49dc004 	pop	{ip}		; (ldr ip, [sp], #4)
 c1047ec:	e25ef004 	subs	pc, lr, #4
 c1047f0:	0c107860 	.word	0x0c107860

0c1047f4 <isr_WDT_dummy>:
 c1047f4:	e52dc004 	push	{ip}		; (str ip, [sp, #-4]!)
 c1047f8:	e1a0c00d 	mov	ip, sp
 c1047fc:	e92dd81f 	push	{r0, r1, r2, r3, r4, fp, ip, lr, pc}
 c104800:	e24cb004 	sub	fp, ip, #4
 c104804:	e24dd00c 	sub	sp, sp, #12
 c104808:	e1a0400e 	mov	r4, lr
 c10480c:	e50b4028 	str	r4, [fp, #-40]	; 0xffffffd8
 c104810:	e51b3028 	ldr	r3, [fp, #-40]	; 0xffffffd8
 c104814:	e2433004 	sub	r3, r3, #4
 c104818:	e3a0000e 	mov	r0, #14
 c10481c:	e59f1014 	ldr	r1, [pc, #20]	; c104838 <isr_WDT_dummy+0x44>
 c104820:	e1a02003 	mov	r2, r3
 c104824:	eb000200 	bl	c10502c <fatalerror>
 c104828:	e24bd020 	sub	sp, fp, #32
 c10482c:	e89d681f 	ldm	sp, {r0, r1, r2, r3, r4, fp, sp, lr}
 c104830:	e49dc004 	pop	{ip}		; (ldr ip, [sp], #4)
 c104834:	e25ef004 	subs	pc, lr, #4
 c104838:	0c10787c 	.word	0x0c10787c

0c10483c <isr_BDMA1_dummy>:
 c10483c:	e52dc004 	push	{ip}		; (str ip, [sp, #-4]!)
 c104840:	e1a0c00d 	mov	ip, sp
 c104844:	e92dd81f 	push	{r0, r1, r2, r3, r4, fp, ip, lr, pc}
 c104848:	e24cb004 	sub	fp, ip, #4
 c10484c:	e24dd00c 	sub	sp, sp, #12
 c104850:	e1a0400e 	mov	r4, lr
 c104854:	e50b4028 	str	r4, [fp, #-40]	; 0xffffffd8
 c104858:	e51b3028 	ldr	r3, [fp, #-40]	; 0xffffffd8
 c10485c:	e2433004 	sub	r3, r3, #4
 c104860:	e3a0000d 	mov	r0, #13
 c104864:	e59f1014 	ldr	r1, [pc, #20]	; c104880 <isr_BDMA1_dummy+0x44>
 c104868:	e1a02003 	mov	r2, r3
 c10486c:	eb0001ee 	bl	c10502c <fatalerror>
 c104870:	e24bd020 	sub	sp, fp, #32
 c104874:	e89d681f 	ldm	sp, {r0, r1, r2, r3, r4, fp, sp, lr}
 c104878:	e49dc004 	pop	{ip}		; (ldr ip, [sp], #4)
 c10487c:	e25ef004 	subs	pc, lr, #4
 c104880:	0c107898 	.word	0x0c107898

0c104884 <isr_BDMA0_dummy>:
 c104884:	e52dc004 	push	{ip}		; (str ip, [sp, #-4]!)
 c104888:	e1a0c00d 	mov	ip, sp
 c10488c:	e92dd81f 	push	{r0, r1, r2, r3, r4, fp, ip, lr, pc}
 c104890:	e24cb004 	sub	fp, ip, #4
 c104894:	e24dd00c 	sub	sp, sp, #12
 c104898:	e1a0400e 	mov	r4, lr
 c10489c:	e50b4028 	str	r4, [fp, #-40]	; 0xffffffd8
 c1048a0:	e51b3028 	ldr	r3, [fp, #-40]	; 0xffffffd8
 c1048a4:	e2433004 	sub	r3, r3, #4
 c1048a8:	e3a0000d 	mov	r0, #13
 c1048ac:	e59f1014 	ldr	r1, [pc, #20]	; c1048c8 <isr_BDMA0_dummy+0x44>
 c1048b0:	e1a02003 	mov	r2, r3
 c1048b4:	eb0001dc 	bl	c10502c <fatalerror>
 c1048b8:	e24bd020 	sub	sp, fp, #32
 c1048bc:	e89d681f 	ldm	sp, {r0, r1, r2, r3, r4, fp, sp, lr}
 c1048c0:	e49dc004 	pop	{ip}		; (ldr ip, [sp], #4)
 c1048c4:	e25ef004 	subs	pc, lr, #4
 c1048c8:	0c1078b4 	.word	0x0c1078b4

0c1048cc <isr_ZDMA1_dummy>:
 c1048cc:	e52dc004 	push	{ip}		; (str ip, [sp, #-4]!)
 c1048d0:	e1a0c00d 	mov	ip, sp
 c1048d4:	e92dd81f 	push	{r0, r1, r2, r3, r4, fp, ip, lr, pc}
 c1048d8:	e24cb004 	sub	fp, ip, #4
 c1048dc:	e24dd00c 	sub	sp, sp, #12
 c1048e0:	e1a0400e 	mov	r4, lr
 c1048e4:	e50b4028 	str	r4, [fp, #-40]	; 0xffffffd8
 c1048e8:	e51b3028 	ldr	r3, [fp, #-40]	; 0xffffffd8
 c1048ec:	e2433004 	sub	r3, r3, #4
 c1048f0:	e3a0000d 	mov	r0, #13
 c1048f4:	e59f1014 	ldr	r1, [pc, #20]	; c104910 <isr_ZDMA1_dummy+0x44>
 c1048f8:	e1a02003 	mov	r2, r3
 c1048fc:	eb0001ca 	bl	c10502c <fatalerror>
 c104900:	e24bd020 	sub	sp, fp, #32
 c104904:	e89d681f 	ldm	sp, {r0, r1, r2, r3, r4, fp, sp, lr}
 c104908:	e49dc004 	pop	{ip}		; (ldr ip, [sp], #4)
 c10490c:	e25ef004 	subs	pc, lr, #4
 c104910:	0c1078d0 	.word	0x0c1078d0

0c104914 <isr_ZDMA0_dummy>:
 c104914:	e52dc004 	push	{ip}		; (str ip, [sp, #-4]!)
 c104918:	e1a0c00d 	mov	ip, sp
 c10491c:	e92dd81f 	push	{r0, r1, r2, r3, r4, fp, ip, lr, pc}
 c104920:	e24cb004 	sub	fp, ip, #4
 c104924:	e24dd00c 	sub	sp, sp, #12
 c104928:	e1a0400e 	mov	r4, lr
 c10492c:	e50b4028 	str	r4, [fp, #-40]	; 0xffffffd8
 c104930:	e51b3028 	ldr	r3, [fp, #-40]	; 0xffffffd8
 c104934:	e2433004 	sub	r3, r3, #4
 c104938:	e3a0000d 	mov	r0, #13
 c10493c:	e59f1014 	ldr	r1, [pc, #20]	; c104958 <isr_ZDMA0_dummy+0x44>
 c104940:	e1a02003 	mov	r2, r3
 c104944:	eb0001b8 	bl	c10502c <fatalerror>
 c104948:	e24bd020 	sub	sp, fp, #32
 c10494c:	e89d681f 	ldm	sp, {r0, r1, r2, r3, r4, fp, sp, lr}
 c104950:	e49dc004 	pop	{ip}		; (ldr ip, [sp], #4)
 c104954:	e25ef004 	subs	pc, lr, #4
 c104958:	0c1078b4 	.word	0x0c1078b4

0c10495c <isr_TICK_dummy>:
 c10495c:	e52dc004 	push	{ip}		; (str ip, [sp, #-4]!)
 c104960:	e1a0c00d 	mov	ip, sp
 c104964:	e92dd81f 	push	{r0, r1, r2, r3, r4, fp, ip, lr, pc}
 c104968:	e24cb004 	sub	fp, ip, #4
 c10496c:	e24dd00c 	sub	sp, sp, #12
 c104970:	e1a0400e 	mov	r4, lr
 c104974:	e50b4028 	str	r4, [fp, #-40]	; 0xffffffd8
 c104978:	e51b3028 	ldr	r3, [fp, #-40]	; 0xffffffd8
 c10497c:	e2433004 	sub	r3, r3, #4
 c104980:	e3a0000a 	mov	r0, #10
 c104984:	e59f1014 	ldr	r1, [pc, #20]	; c1049a0 <isr_TICK_dummy+0x44>
 c104988:	e1a02003 	mov	r2, r3
 c10498c:	eb0001a6 	bl	c10502c <fatalerror>
 c104990:	e24bd020 	sub	sp, fp, #32
 c104994:	e89d681f 	ldm	sp, {r0, r1, r2, r3, r4, fp, sp, lr}
 c104998:	e49dc004 	pop	{ip}		; (ldr ip, [sp], #4)
 c10499c:	e25ef004 	subs	pc, lr, #4
 c1049a0:	0c1078ec 	.word	0x0c1078ec

0c1049a4 <isr_PB_dummy>:
 c1049a4:	e52dc004 	push	{ip}		; (str ip, [sp, #-4]!)
 c1049a8:	e1a0c00d 	mov	ip, sp
 c1049ac:	e92dd81f 	push	{r0, r1, r2, r3, r4, fp, ip, lr, pc}
 c1049b0:	e24cb004 	sub	fp, ip, #4
 c1049b4:	e24dd00c 	sub	sp, sp, #12
 c1049b8:	e1a0400e 	mov	r4, lr
 c1049bc:	e50b4028 	str	r4, [fp, #-40]	; 0xffffffd8
 c1049c0:	e51b3028 	ldr	r3, [fp, #-40]	; 0xffffffd8
 c1049c4:	e2433004 	sub	r3, r3, #4
 c1049c8:	e3a00006 	mov	r0, #6
 c1049cc:	e59f1014 	ldr	r1, [pc, #20]	; c1049e8 <isr_PB_dummy+0x44>
 c1049d0:	e1a02003 	mov	r2, r3
 c1049d4:	eb000194 	bl	c10502c <fatalerror>
 c1049d8:	e24bd020 	sub	sp, fp, #32
 c1049dc:	e89d681f 	ldm	sp, {r0, r1, r2, r3, r4, fp, sp, lr}
 c1049e0:	e49dc004 	pop	{ip}		; (ldr ip, [sp], #4)
 c1049e4:	e25ef004 	subs	pc, lr, #4
 c1049e8:	0c107908 	.word	0x0c107908

0c1049ec <isr_ETHERNET_dummy>:
 c1049ec:	e52dc004 	push	{ip}		; (str ip, [sp, #-4]!)
 c1049f0:	e1a0c00d 	mov	ip, sp
 c1049f4:	e92dd81f 	push	{r0, r1, r2, r3, r4, fp, ip, lr, pc}
 c1049f8:	e24cb004 	sub	fp, ip, #4
 c1049fc:	e24dd00c 	sub	sp, sp, #12
 c104a00:	e1a0400e 	mov	r4, lr
 c104a04:	e50b4028 	str	r4, [fp, #-40]	; 0xffffffd8
 c104a08:	e51b3028 	ldr	r3, [fp, #-40]	; 0xffffffd8
 c104a0c:	e2433004 	sub	r3, r3, #4
 c104a10:	e3a0000f 	mov	r0, #15
 c104a14:	e59f1014 	ldr	r1, [pc, #20]	; c104a30 <isr_ETHERNET_dummy+0x44>
 c104a18:	e1a02003 	mov	r2, r3
 c104a1c:	eb000182 	bl	c10502c <fatalerror>
 c104a20:	e24bd020 	sub	sp, fp, #32
 c104a24:	e89d681f 	ldm	sp, {r0, r1, r2, r3, r4, fp, sp, lr}
 c104a28:	e49dc004 	pop	{ip}		; (ldr ip, [sp], #4)
 c104a2c:	e25ef004 	subs	pc, lr, #4
 c104a30:	0c107920 	.word	0x0c107920

0c104a34 <isr_TS_dummy>:
 c104a34:	e52dc004 	push	{ip}		; (str ip, [sp, #-4]!)
 c104a38:	e1a0c00d 	mov	ip, sp
 c104a3c:	e92dd81f 	push	{r0, r1, r2, r3, r4, fp, ip, lr, pc}
 c104a40:	e24cb004 	sub	fp, ip, #4
 c104a44:	e24dd00c 	sub	sp, sp, #12
 c104a48:	e1a0400e 	mov	r4, lr
 c104a4c:	e50b4028 	str	r4, [fp, #-40]	; 0xffffffd8
 c104a50:	e51b3028 	ldr	r3, [fp, #-40]	; 0xffffffd8
 c104a54:	e2433004 	sub	r3, r3, #4
 c104a58:	e3a0000b 	mov	r0, #11
 c104a5c:	e59f1014 	ldr	r1, [pc, #20]	; c104a78 <isr_TS_dummy+0x44>
 c104a60:	e1a02003 	mov	r2, r3
 c104a64:	eb000170 	bl	c10502c <fatalerror>
 c104a68:	e24bd020 	sub	sp, fp, #32
 c104a6c:	e89d681f 	ldm	sp, {r0, r1, r2, r3, r4, fp, sp, lr}
 c104a70:	e49dc004 	pop	{ip}		; (ldr ip, [sp], #4)
 c104a74:	e25ef004 	subs	pc, lr, #4
 c104a78:	0c107940 	.word	0x0c107940

0c104a7c <isr_KEYPAD_dummy>:
 c104a7c:	e52dc004 	push	{ip}		; (str ip, [sp, #-4]!)
 c104a80:	e1a0c00d 	mov	ip, sp
 c104a84:	e92dd81f 	push	{r0, r1, r2, r3, r4, fp, ip, lr, pc}
 c104a88:	e24cb004 	sub	fp, ip, #4
 c104a8c:	e24dd00c 	sub	sp, sp, #12
 c104a90:	e1a0400e 	mov	r4, lr
 c104a94:	e50b4028 	str	r4, [fp, #-40]	; 0xffffffd8
 c104a98:	e51b3028 	ldr	r3, [fp, #-40]	; 0xffffffd8
 c104a9c:	e2433004 	sub	r3, r3, #4
 c104aa0:	e3a00007 	mov	r0, #7
 c104aa4:	e59f1014 	ldr	r1, [pc, #20]	; c104ac0 <isr_KEYPAD_dummy+0x44>
 c104aa8:	e1a02003 	mov	r2, r3
 c104aac:	eb00015e 	bl	c10502c <fatalerror>
 c104ab0:	e24bd020 	sub	sp, fp, #32
 c104ab4:	e89d681f 	ldm	sp, {r0, r1, r2, r3, r4, fp, sp, lr}
 c104ab8:	e49dc004 	pop	{ip}		; (ldr ip, [sp], #4)
 c104abc:	e25ef004 	subs	pc, lr, #4
 c104ac0:	0c107958 	.word	0x0c107958

0c104ac4 <isr_USB_dummy>:
 c104ac4:	e52dc004 	push	{ip}		; (str ip, [sp, #-4]!)
 c104ac8:	e1a0c00d 	mov	ip, sp
 c104acc:	e92dd81f 	push	{r0, r1, r2, r3, r4, fp, ip, lr, pc}
 c104ad0:	e24cb004 	sub	fp, ip, #4
 c104ad4:	e24dd00c 	sub	sp, sp, #12
 c104ad8:	e1a0400e 	mov	r4, lr
 c104adc:	e50b4028 	str	r4, [fp, #-40]	; 0xffffffd8
 c104ae0:	e51b3028 	ldr	r3, [fp, #-40]	; 0xffffffd8
 c104ae4:	e2433004 	sub	r3, r3, #4
 c104ae8:	e3a0000f 	mov	r0, #15
 c104aec:	e59f1014 	ldr	r1, [pc, #20]	; c104b08 <isr_USB_dummy+0x44>
 c104af0:	e1a02003 	mov	r2, r3
 c104af4:	eb00014c 	bl	c10502c <fatalerror>
 c104af8:	e24bd020 	sub	sp, fp, #32
 c104afc:	e89d681f 	ldm	sp, {r0, r1, r2, r3, r4, fp, sp, lr}
 c104b00:	e49dc004 	pop	{ip}		; (ldr ip, [sp], #4)
 c104b04:	e25ef004 	subs	pc, lr, #4
 c104b08:	0c107974 	.word	0x0c107974

0c104b0c <show_sys_info>:
 c104b0c:	e1a0c00d 	mov	ip, sp
 c104b10:	e92dd810 	push	{r4, fp, ip, lr, pc}
 c104b14:	e24cb004 	sub	fp, ip, #4
 c104b18:	e24dd00c 	sub	sp, sp, #12
 c104b1c:	e59f03a4 	ldr	r0, [pc, #932]	; c104ec8 <show_sys_info+0x3bc>
 c104b20:	eb000491 	bl	c105d6c <uart0_puts>
 c104b24:	e59f03a0 	ldr	r0, [pc, #928]	; c104ecc <show_sys_info+0x3c0>
 c104b28:	eb00048f 	bl	c105d6c <uart0_puts>
 c104b2c:	e59f039c 	ldr	r0, [pc, #924]	; c104ed0 <show_sys_info+0x3c4>
 c104b30:	eb00048d 	bl	c105d6c <uart0_puts>
 c104b34:	e59f0398 	ldr	r0, [pc, #920]	; c104ed4 <show_sys_info+0x3c8>
 c104b38:	eb00048b 	bl	c105d6c <uart0_puts>
 c104b3c:	e59f0394 	ldr	r0, [pc, #916]	; c104ed8 <show_sys_info+0x3cc>
 c104b40:	eb000489 	bl	c105d6c <uart0_puts>
 c104b44:	e59f0390 	ldr	r0, [pc, #912]	; c104edc <show_sys_info+0x3d0>
 c104b48:	eb000487 	bl	c105d6c <uart0_puts>
 c104b4c:	e59f038c 	ldr	r0, [pc, #908]	; c104ee0 <show_sys_info+0x3d4>
 c104b50:	eb000485 	bl	c105d6c <uart0_puts>
 c104b54:	e59f0388 	ldr	r0, [pc, #904]	; c104ee4 <show_sys_info+0x3d8>
 c104b58:	eb000483 	bl	c105d6c <uart0_puts>
 c104b5c:	e59f0384 	ldr	r0, [pc, #900]	; c104ee8 <show_sys_info+0x3dc>
 c104b60:	eb000481 	bl	c105d6c <uart0_puts>
 c104b64:	e59f0380 	ldr	r0, [pc, #896]	; c104eec <show_sys_info+0x3e0>
 c104b68:	eb00047f 	bl	c105d6c <uart0_puts>
 c104b6c:	e59f037c 	ldr	r0, [pc, #892]	; c104ef0 <show_sys_info+0x3e4>
 c104b70:	eb00047d 	bl	c105d6c <uart0_puts>
 c104b74:	e59f0378 	ldr	r0, [pc, #888]	; c104ef4 <show_sys_info+0x3e8>
 c104b78:	eb00047b 	bl	c105d6c <uart0_puts>
 c104b7c:	e59f0374 	ldr	r0, [pc, #884]	; c104ef8 <show_sys_info+0x3ec>
 c104b80:	eb000479 	bl	c105d6c <uart0_puts>
 c104b84:	e59f0370 	ldr	r0, [pc, #880]	; c104efc <show_sys_info+0x3f0>
 c104b88:	eb000477 	bl	c105d6c <uart0_puts>
 c104b8c:	e59f036c 	ldr	r0, [pc, #876]	; c104f00 <show_sys_info+0x3f4>
 c104b90:	eb000475 	bl	c105d6c <uart0_puts>
 c104b94:	e10f4000 	mrs	r4, CPSR
 c104b98:	e50b4018 	str	r4, [fp, #-24]	; 0xffffffe8
 c104b9c:	e51b3018 	ldr	r3, [fp, #-24]	; 0xffffffe8
 c104ba0:	e2033020 	and	r3, r3, #32
 c104ba4:	e3530000 	cmp	r3, #0
 c104ba8:	0a000002 	beq	c104bb8 <show_sys_info+0xac>
 c104bac:	e59f0350 	ldr	r0, [pc, #848]	; c104f04 <show_sys_info+0x3f8>
 c104bb0:	eb00046d 	bl	c105d6c <uart0_puts>
 c104bb4:	ea000001 	b	c104bc0 <show_sys_info+0xb4>
 c104bb8:	e59f0348 	ldr	r0, [pc, #840]	; c104f08 <show_sys_info+0x3fc>
 c104bbc:	eb00046a 	bl	c105d6c <uart0_puts>
 c104bc0:	e59f0344 	ldr	r0, [pc, #836]	; c104f0c <show_sys_info+0x400>
 c104bc4:	eb000468 	bl	c105d6c <uart0_puts>
 c104bc8:	e51b3018 	ldr	r3, [fp, #-24]	; 0xffffffe8
 c104bcc:	e203301f 	and	r3, r3, #31
 c104bd0:	e2433010 	sub	r3, r3, #16
 c104bd4:	e353000f 	cmp	r3, #15
 c104bd8:	979ff103 	ldrls	pc, [pc, r3, lsl #2]
 c104bdc:	ea000024 	b	c104c74 <show_sys_info+0x168>
 c104be0:	0c104c20 	.word	0x0c104c20
 c104be4:	0c104c2c 	.word	0x0c104c2c
 c104be8:	0c104c38 	.word	0x0c104c38
 c104bec:	0c104c44 	.word	0x0c104c44
 c104bf0:	0c104c74 	.word	0x0c104c74
 c104bf4:	0c104c74 	.word	0x0c104c74
 c104bf8:	0c104c74 	.word	0x0c104c74
 c104bfc:	0c104c50 	.word	0x0c104c50
 c104c00:	0c104c74 	.word	0x0c104c74
 c104c04:	0c104c74 	.word	0x0c104c74
 c104c08:	0c104c74 	.word	0x0c104c74
 c104c0c:	0c104c5c 	.word	0x0c104c5c
 c104c10:	0c104c74 	.word	0x0c104c74
 c104c14:	0c104c74 	.word	0x0c104c74
 c104c18:	0c104c74 	.word	0x0c104c74
 c104c1c:	0c104c68 	.word	0x0c104c68
 c104c20:	e59f02e8 	ldr	r0, [pc, #744]	; c104f10 <show_sys_info+0x404>
 c104c24:	eb000450 	bl	c105d6c <uart0_puts>
 c104c28:	ea000011 	b	c104c74 <show_sys_info+0x168>
 c104c2c:	e59f02e0 	ldr	r0, [pc, #736]	; c104f14 <show_sys_info+0x408>
 c104c30:	eb00044d 	bl	c105d6c <uart0_puts>
 c104c34:	ea00000e 	b	c104c74 <show_sys_info+0x168>
 c104c38:	e59f02d8 	ldr	r0, [pc, #728]	; c104f18 <show_sys_info+0x40c>
 c104c3c:	eb00044a 	bl	c105d6c <uart0_puts>
 c104c40:	ea00000b 	b	c104c74 <show_sys_info+0x168>
 c104c44:	e59f02d0 	ldr	r0, [pc, #720]	; c104f1c <show_sys_info+0x410>
 c104c48:	eb000447 	bl	c105d6c <uart0_puts>
 c104c4c:	ea000008 	b	c104c74 <show_sys_info+0x168>
 c104c50:	e59f02c8 	ldr	r0, [pc, #712]	; c104f20 <show_sys_info+0x414>
 c104c54:	eb000444 	bl	c105d6c <uart0_puts>
 c104c58:	ea000005 	b	c104c74 <show_sys_info+0x168>
 c104c5c:	e59f02c0 	ldr	r0, [pc, #704]	; c104f24 <show_sys_info+0x418>
 c104c60:	eb000441 	bl	c105d6c <uart0_puts>
 c104c64:	ea000002 	b	c104c74 <show_sys_info+0x168>
 c104c68:	e59f02b8 	ldr	r0, [pc, #696]	; c104f28 <show_sys_info+0x41c>
 c104c6c:	eb00043e 	bl	c105d6c <uart0_puts>
 c104c70:	e1a00000 	nop			; (mov r0, r0)
 c104c74:	e59f02b0 	ldr	r0, [pc, #688]	; c104f2c <show_sys_info+0x420>
 c104c78:	eb00043b 	bl	c105d6c <uart0_puts>
 c104c7c:	e51b3018 	ldr	r3, [fp, #-24]	; 0xffffffe8
 c104c80:	e2033080 	and	r3, r3, #128	; 0x80
 c104c84:	e3530000 	cmp	r3, #0
 c104c88:	0a000002 	beq	c104c98 <show_sys_info+0x18c>
 c104c8c:	e59f029c 	ldr	r0, [pc, #668]	; c104f30 <show_sys_info+0x424>
 c104c90:	eb000435 	bl	c105d6c <uart0_puts>
 c104c94:	ea000001 	b	c104ca0 <show_sys_info+0x194>
 c104c98:	e59f0294 	ldr	r0, [pc, #660]	; c104f34 <show_sys_info+0x428>
 c104c9c:	eb000432 	bl	c105d6c <uart0_puts>
 c104ca0:	e59f0290 	ldr	r0, [pc, #656]	; c104f38 <show_sys_info+0x42c>
 c104ca4:	eb000430 	bl	c105d6c <uart0_puts>
 c104ca8:	e51b3018 	ldr	r3, [fp, #-24]	; 0xffffffe8
 c104cac:	e2033040 	and	r3, r3, #64	; 0x40
 c104cb0:	e3530000 	cmp	r3, #0
 c104cb4:	0a000002 	beq	c104cc4 <show_sys_info+0x1b8>
 c104cb8:	e59f0270 	ldr	r0, [pc, #624]	; c104f30 <show_sys_info+0x424>
 c104cbc:	eb00042a 	bl	c105d6c <uart0_puts>
 c104cc0:	ea000001 	b	c104ccc <show_sys_info+0x1c0>
 c104cc4:	e59f0268 	ldr	r0, [pc, #616]	; c104f34 <show_sys_info+0x428>
 c104cc8:	eb000427 	bl	c105d6c <uart0_puts>
 c104ccc:	e59f0268 	ldr	r0, [pc, #616]	; c104f3c <show_sys_info+0x430>
 c104cd0:	eb000425 	bl	c105d6c <uart0_puts>
 c104cd4:	e59f3264 	ldr	r3, [pc, #612]	; c104f40 <show_sys_info+0x434>
 c104cd8:	e5932000 	ldr	r2, [r3]
 c104cdc:	e59f3260 	ldr	r3, [pc, #608]	; c104f44 <show_sys_info+0x438>
 c104ce0:	e0831392 	umull	r1, r3, r2, r3
 c104ce4:	e1a03923 	lsr	r3, r3, #18
 c104ce8:	e1a00003 	mov	r0, r3
 c104cec:	eb000432 	bl	c105dbc <uart0_putint>
 c104cf0:	e59f0250 	ldr	r0, [pc, #592]	; c104f48 <show_sys_info+0x43c>
 c104cf4:	eb00041c 	bl	c105d6c <uart0_puts>
 c104cf8:	e59f024c 	ldr	r0, [pc, #588]	; c104f4c <show_sys_info+0x440>
 c104cfc:	eb00041a 	bl	c105d6c <uart0_puts>
 c104d00:	e3a03507 	mov	r3, #29360128	; 0x1c00000
 c104d04:	e5933000 	ldr	r3, [r3]
 c104d08:	e2033006 	and	r3, r3, #6
 c104d0c:	e1a030a3 	lsr	r3, r3, #1
 c104d10:	e3530001 	cmp	r3, #1
 c104d14:	0a000007 	beq	c104d38 <show_sys_info+0x22c>
 c104d18:	e3530001 	cmp	r3, #1
 c104d1c:	3a000002 	bcc	c104d2c <show_sys_info+0x220>
 c104d20:	e3530003 	cmp	r3, #3
 c104d24:	0a000006 	beq	c104d44 <show_sys_info+0x238>
 c104d28:	ea000008 	b	c104d50 <show_sys_info+0x244>
 c104d2c:	e59f021c 	ldr	r0, [pc, #540]	; c104f50 <show_sys_info+0x444>
 c104d30:	eb00040d 	bl	c105d6c <uart0_puts>
 c104d34:	ea000005 	b	c104d50 <show_sys_info+0x244>
 c104d38:	e59f0214 	ldr	r0, [pc, #532]	; c104f54 <show_sys_info+0x448>
 c104d3c:	eb00040a 	bl	c105d6c <uart0_puts>
 c104d40:	ea000002 	b	c104d50 <show_sys_info+0x244>
 c104d44:	e59f020c 	ldr	r0, [pc, #524]	; c104f58 <show_sys_info+0x44c>
 c104d48:	eb000407 	bl	c105d6c <uart0_puts>
 c104d4c:	e1a00000 	nop			; (mov r0, r0)
 c104d50:	e59f0204 	ldr	r0, [pc, #516]	; c104f5c <show_sys_info+0x450>
 c104d54:	eb000404 	bl	c105d6c <uart0_puts>
 c104d58:	e3a00002 	mov	r0, #2
 c104d5c:	eb000416 	bl	c105dbc <uart0_putint>
 c104d60:	e59f01f8 	ldr	r0, [pc, #504]	; c104f60 <show_sys_info+0x454>
 c104d64:	eb000400 	bl	c105d6c <uart0_puts>
 c104d68:	e59f01f4 	ldr	r0, [pc, #500]	; c104f64 <show_sys_info+0x458>
 c104d6c:	eb0003fe 	bl	c105d6c <uart0_puts>
 c104d70:	e3a00008 	mov	r0, #8
 c104d74:	eb000410 	bl	c105dbc <uart0_putint>
 c104d78:	e59f01e0 	ldr	r0, [pc, #480]	; c104f60 <show_sys_info+0x454>
 c104d7c:	eb0003fa 	bl	c105d6c <uart0_puts>
 c104d80:	e59f01e0 	ldr	r0, [pc, #480]	; c104f68 <show_sys_info+0x45c>
 c104d84:	eb0003f8 	bl	c105d6c <uart0_puts>
 c104d88:	e59f01dc 	ldr	r0, [pc, #476]	; c104f6c <show_sys_info+0x460>
 c104d8c:	eb0003f6 	bl	c105d6c <uart0_puts>
 c104d90:	e59f01d8 	ldr	r0, [pc, #472]	; c104f70 <show_sys_info+0x464>
 c104d94:	eb0003f4 	bl	c105d6c <uart0_puts>
 c104d98:	e59f31d4 	ldr	r3, [pc, #468]	; c104f74 <show_sys_info+0x468>
 c104d9c:	e1a03523 	lsr	r3, r3, #10
 c104da0:	e1a00003 	mov	r0, r3
 c104da4:	eb000404 	bl	c105dbc <uart0_putint>
 c104da8:	e59f01c8 	ldr	r0, [pc, #456]	; c104f78 <show_sys_info+0x46c>
 c104dac:	eb0003ee 	bl	c105d6c <uart0_puts>
 c104db0:	e59f31bc 	ldr	r3, [pc, #444]	; c104f74 <show_sys_info+0x468>
 c104db4:	e1a00003 	mov	r0, r3
 c104db8:	eb0003ff 	bl	c105dbc <uart0_putint>
 c104dbc:	e59f01b8 	ldr	r0, [pc, #440]	; c104f7c <show_sys_info+0x470>
 c104dc0:	eb0003e9 	bl	c105d6c <uart0_puts>
 c104dc4:	e59f21a8 	ldr	r2, [pc, #424]	; c104f74 <show_sys_info+0x468>
 c104dc8:	e1a03002 	mov	r3, r2
 c104dcc:	e1a03103 	lsl	r3, r3, #2
 c104dd0:	e0833002 	add	r3, r3, r2
 c104dd4:	e1a02103 	lsl	r2, r3, #2
 c104dd8:	e0833002 	add	r3, r3, r2
 c104ddc:	e1a03103 	lsl	r3, r3, #2
 c104de0:	e1a03ba3 	lsr	r3, r3, #23
 c104de4:	e1a00003 	mov	r0, r3
 c104de8:	eb0003f3 	bl	c105dbc <uart0_putint>
 c104dec:	e59f018c 	ldr	r0, [pc, #396]	; c104f80 <show_sys_info+0x474>
 c104df0:	eb0003dd 	bl	c105d6c <uart0_puts>
 c104df4:	e59f0188 	ldr	r0, [pc, #392]	; c104f84 <show_sys_info+0x478>
 c104df8:	eb0003db 	bl	c105d6c <uart0_puts>
 c104dfc:	e59f3184 	ldr	r3, [pc, #388]	; c104f88 <show_sys_info+0x47c>
 c104e00:	e1a03523 	lsr	r3, r3, #10
 c104e04:	e1a00003 	mov	r0, r3
 c104e08:	eb0003eb 	bl	c105dbc <uart0_putint>
 c104e0c:	e59f0164 	ldr	r0, [pc, #356]	; c104f78 <show_sys_info+0x46c>
 c104e10:	eb0003d5 	bl	c105d6c <uart0_puts>
 c104e14:	e59f316c 	ldr	r3, [pc, #364]	; c104f88 <show_sys_info+0x47c>
 c104e18:	e1a00003 	mov	r0, r3
 c104e1c:	eb0003e6 	bl	c105dbc <uart0_putint>
 c104e20:	e59f0164 	ldr	r0, [pc, #356]	; c104f8c <show_sys_info+0x480>
 c104e24:	eb0003d0 	bl	c105d6c <uart0_puts>
 c104e28:	e59f0160 	ldr	r0, [pc, #352]	; c104f90 <show_sys_info+0x484>
 c104e2c:	eb0003ce 	bl	c105d6c <uart0_puts>
 c104e30:	e59f315c 	ldr	r3, [pc, #348]	; c104f94 <show_sys_info+0x488>
 c104e34:	e1a00003 	mov	r0, r3
 c104e38:	eb000434 	bl	c105f10 <uart0_puthex>
 c104e3c:	e59f0154 	ldr	r0, [pc, #340]	; c104f98 <show_sys_info+0x48c>
 c104e40:	eb0003c9 	bl	c105d6c <uart0_puts>
 c104e44:	e59f3150 	ldr	r3, [pc, #336]	; c104f9c <show_sys_info+0x490>
 c104e48:	e2433001 	sub	r3, r3, #1
 c104e4c:	e1a00003 	mov	r0, r3
 c104e50:	eb00042e 	bl	c105f10 <uart0_puthex>
 c104e54:	e59f0144 	ldr	r0, [pc, #324]	; c104fa0 <show_sys_info+0x494>
 c104e58:	eb0003c3 	bl	c105d6c <uart0_puts>
 c104e5c:	e59f3140 	ldr	r3, [pc, #320]	; c104fa4 <show_sys_info+0x498>
 c104e60:	e1a03523 	lsr	r3, r3, #10
 c104e64:	e1a00003 	mov	r0, r3
 c104e68:	eb0003d3 	bl	c105dbc <uart0_putint>
 c104e6c:	e59f0104 	ldr	r0, [pc, #260]	; c104f78 <show_sys_info+0x46c>
 c104e70:	eb0003bd 	bl	c105d6c <uart0_puts>
 c104e74:	e59f3128 	ldr	r3, [pc, #296]	; c104fa4 <show_sys_info+0x498>
 c104e78:	e1a00003 	mov	r0, r3
 c104e7c:	eb0003ce 	bl	c105dbc <uart0_putint>
 c104e80:	e59f0104 	ldr	r0, [pc, #260]	; c104f8c <show_sys_info+0x480>
 c104e84:	eb0003b8 	bl	c105d6c <uart0_puts>
 c104e88:	e59f0100 	ldr	r0, [pc, #256]	; c104f90 <show_sys_info+0x484>
 c104e8c:	eb0003b6 	bl	c105d6c <uart0_puts>
 c104e90:	e59f3110 	ldr	r3, [pc, #272]	; c104fa8 <show_sys_info+0x49c>
 c104e94:	e1a00003 	mov	r0, r3
 c104e98:	eb00041c 	bl	c105f10 <uart0_puthex>
 c104e9c:	e59f00f4 	ldr	r0, [pc, #244]	; c104f98 <show_sys_info+0x48c>
 c104ea0:	eb0003b1 	bl	c105d6c <uart0_puts>
 c104ea4:	e59f3100 	ldr	r3, [pc, #256]	; c104fac <show_sys_info+0x4a0>
 c104ea8:	e2433001 	sub	r3, r3, #1
 c104eac:	e1a00003 	mov	r0, r3
 c104eb0:	eb000416 	bl	c105f10 <uart0_puthex>
 c104eb4:	e59f00f4 	ldr	r0, [pc, #244]	; c104fb0 <show_sys_info+0x4a4>
 c104eb8:	eb0003ab 	bl	c105d6c <uart0_puts>
 c104ebc:	e24bd010 	sub	sp, fp, #16
 c104ec0:	e89d6810 	ldm	sp, {r4, fp, sp, lr}
 c104ec4:	e12fff1e 	bx	lr
 c104ec8:	0c107990 	.word	0x0c107990
 c104ecc:	0c1079c0 	.word	0x0c1079c0
 c104ed0:	0c1079d4 	.word	0x0c1079d4
 c104ed4:	0c1079ec 	.word	0x0c1079ec
 c104ed8:	0c1079fc 	.word	0x0c1079fc
 c104edc:	0c107a08 	.word	0x0c107a08
 c104ee0:	0c107a0c 	.word	0x0c107a0c
 c104ee4:	0c107a18 	.word	0x0c107a18
 c104ee8:	0c107a1c 	.word	0x0c107a1c
 c104eec:	0c107a3c 	.word	0x0c107a3c
 c104ef0:	0c107a44 	.word	0x0c107a44
 c104ef4:	0c107a6c 	.word	0x0c107a6c
 c104ef8:	0c107a88 	.word	0x0c107a88
 c104efc:	0c107a94 	.word	0x0c107a94
 c104f00:	0c107aa0 	.word	0x0c107aa0
 c104f04:	0c107abc 	.word	0x0c107abc
 c104f08:	0c107ac4 	.word	0x0c107ac4
 c104f0c:	0c107ac8 	.word	0x0c107ac8
 c104f10:	0c107ae4 	.word	0x0c107ae4
 c104f14:	0c107ae8 	.word	0x0c107ae8
 c104f18:	0c107aec 	.word	0x0c107aec
 c104f1c:	0c107af0 	.word	0x0c107af0
 c104f20:	0c107af4 	.word	0x0c107af4
 c104f24:	0c107af8 	.word	0x0c107af8
 c104f28:	0c107afc 	.word	0x0c107afc
 c104f2c:	0c107b00 	.word	0x0c107b00
 c104f30:	0c107b1c 	.word	0x0c107b1c
 c104f34:	0c107b2c 	.word	0x0c107b2c
 c104f38:	0c107b38 	.word	0x0c107b38
 c104f3c:	0c107b54 	.word	0x0c107b54
 c104f40:	0c108d30 	.word	0x0c108d30
 c104f44:	431bde83 	.word	0x431bde83
 c104f48:	0c107b70 	.word	0x0c107b70
 c104f4c:	0c107b78 	.word	0x0c107b78
 c104f50:	0c107b94 	.word	0x0c107b94
 c104f54:	0c107ba4 	.word	0x0c107ba4
 c104f58:	0c107bac 	.word	0x0c107bac
 c104f5c:	0c107bb4 	.word	0x0c107bb4
 c104f60:	0c107bd0 	.word	0x0c107bd0
 c104f64:	0c107bd4 	.word	0x0c107bd4
 c104f68:	0c107bf0 	.word	0x0c107bf0
 c104f6c:	0c107c10 	.word	0x0c107c10
 c104f70:	0c107c20 	.word	0x0c107c20
 c104f74:	00009590 	.word	0x00009590
 c104f78:	0c107c38 	.word	0x0c107c38
 c104f7c:	0c107c40 	.word	0x0c107c40
 c104f80:	0c107c48 	.word	0x0c107c48
 c104f84:	0c107c4c 	.word	0x0c107c4c
 c104f88:	00007494 	.word	0x00007494
 c104f8c:	0c107c68 	.word	0x0c107c68
 c104f90:	0c107c6c 	.word	0x0c107c6c
 c104f94:	0c100000 	.word	0x0c100000
 c104f98:	0c107c88 	.word	0x0c107c88
 c104f9c:	0c107494 	.word	0x0c107494
 c104fa0:	0c107ca4 	.word	0x0c107ca4
 c104fa4:	000020fc 	.word	0x000020fc
 c104fa8:	0c107494 	.word	0x0c107494
 c104fac:	0c112b98 	.word	0x0c112b98
 c104fb0:	0c107cc0 	.word	0x0c107cc0

0c104fb4 <getmem>:
 c104fb4:	e1a0c00d 	mov	ip, sp
 c104fb8:	e92dd800 	push	{fp, ip, lr, pc}
 c104fbc:	e24cb004 	sub	fp, ip, #4
 c104fc0:	e24dd010 	sub	sp, sp, #16
 c104fc4:	e50b0018 	str	r0, [fp, #-24]	; 0xffffffe8
 c104fc8:	e59f3058 	ldr	r3, [pc, #88]	; c105028 <getmem+0x74>
 c104fcc:	e5933000 	ldr	r3, [r3]
 c104fd0:	e2033003 	and	r3, r3, #3
 c104fd4:	e3530000 	cmp	r3, #0
 c104fd8:	0a000001 	beq	c104fe4 <getmem+0x30>
 c104fdc:	e3a03004 	mov	r3, #4
 c104fe0:	ea000000 	b	c104fe8 <getmem+0x34>
 c104fe4:	e3a03000 	mov	r3, #0
 c104fe8:	e59f2038 	ldr	r2, [pc, #56]	; c105028 <getmem+0x74>
 c104fec:	e5922000 	ldr	r2, [r2]
 c104ff0:	e3c22003 	bic	r2, r2, #3
 c104ff4:	e0833002 	add	r3, r3, r2
 c104ff8:	e50b3010 	str	r3, [fp, #-16]
 c104ffc:	e59f3024 	ldr	r3, [pc, #36]	; c105028 <getmem+0x74>
 c105000:	e5932000 	ldr	r2, [r3]
 c105004:	e51b3018 	ldr	r3, [fp, #-24]	; 0xffffffe8
 c105008:	e0822003 	add	r2, r2, r3
 c10500c:	e59f3014 	ldr	r3, [pc, #20]	; c105028 <getmem+0x74>
 c105010:	e5832000 	str	r2, [r3]
 c105014:	e51b3010 	ldr	r3, [fp, #-16]
 c105018:	e1a00003 	mov	r0, r3
 c10501c:	e24bd00c 	sub	sp, fp, #12
 c105020:	e89d6800 	ldm	sp, {fp, sp, lr}
 c105024:	e12fff1e 	bx	lr
 c105028:	0c108d34 	.word	0x0c108d34

0c10502c <fatalerror>:
 c10502c:	e1a0c00d 	mov	ip, sp
 c105030:	e92dd800 	push	{fp, ip, lr, pc}
 c105034:	e24cb004 	sub	fp, ip, #4
 c105038:	e24dd018 	sub	sp, sp, #24
 c10503c:	e1a03000 	mov	r3, r0
 c105040:	e50b101c 	str	r1, [fp, #-28]	; 0xffffffe4
 c105044:	e50b2020 	str	r2, [fp, #-32]	; 0xffffffe0
 c105048:	e54b3015 	strb	r3, [fp, #-21]	; 0xffffffeb
 c10504c:	e59f00a8 	ldr	r0, [pc, #168]	; c1050fc <fatalerror+0xd0>
 c105050:	eb000345 	bl	c105d6c <uart0_puts>
 c105054:	e51b001c 	ldr	r0, [fp, #-28]	; 0xffffffe4
 c105058:	eb000343 	bl	c105d6c <uart0_puts>
 c10505c:	e59f009c 	ldr	r0, [pc, #156]	; c105100 <fatalerror+0xd4>
 c105060:	eb000341 	bl	c105d6c <uart0_puts>
 c105064:	e51b0020 	ldr	r0, [fp, #-32]	; 0xffffffe0
 c105068:	eb0003a8 	bl	c105f10 <uart0_puthex>
 c10506c:	e59f3090 	ldr	r3, [pc, #144]	; c105104 <fatalerror+0xd8>
 c105070:	e59f2090 	ldr	r2, [pc, #144]	; c105108 <fatalerror+0xdc>
 c105074:	e5832000 	str	r2, [r3]
 c105078:	e55b3015 	ldrb	r3, [fp, #-21]	; 0xffffffeb
 c10507c:	e1a00003 	mov	r0, r3
 c105080:	ebfffa0e 	bl	c1038c0 <segs_putchar>
 c105084:	e59f3080 	ldr	r3, [pc, #128]	; c10510c <fatalerror+0xe0>
 c105088:	e3a02000 	mov	r2, #0
 c10508c:	e5832000 	str	r2, [r3]
 c105090:	e3a03000 	mov	r3, #0
 c105094:	e50b3010 	str	r3, [fp, #-16]
 c105098:	ea000002 	b	c1050a8 <fatalerror+0x7c>
 c10509c:	e51b3010 	ldr	r3, [fp, #-16]
 c1050a0:	e2833001 	add	r3, r3, #1
 c1050a4:	e50b3010 	str	r3, [fp, #-16]
 c1050a8:	e51b2010 	ldr	r2, [fp, #-16]
 c1050ac:	e59f305c 	ldr	r3, [pc, #92]	; c105110 <fatalerror+0xe4>
 c1050b0:	e1520003 	cmp	r2, r3
 c1050b4:	9afffff8 	bls	c10509c <fatalerror+0x70>
 c1050b8:	e3a03785 	mov	r3, #34865152	; 0x2140000
 c1050bc:	e3e02000 	mvn	r2, #0
 c1050c0:	e5c32000 	strb	r2, [r3]
 c1050c4:	e59f3040 	ldr	r3, [pc, #64]	; c10510c <fatalerror+0xe0>
 c1050c8:	e3a02c06 	mov	r2, #1536	; 0x600
 c1050cc:	e5832000 	str	r2, [r3]
 c1050d0:	e3a03000 	mov	r3, #0
 c1050d4:	e50b3010 	str	r3, [fp, #-16]
 c1050d8:	ea000002 	b	c1050e8 <fatalerror+0xbc>
 c1050dc:	e51b3010 	ldr	r3, [fp, #-16]
 c1050e0:	e2833001 	add	r3, r3, #1
 c1050e4:	e50b3010 	str	r3, [fp, #-16]
 c1050e8:	e51b2010 	ldr	r2, [fp, #-16]
 c1050ec:	e59f301c 	ldr	r3, [pc, #28]	; c105110 <fatalerror+0xe4>
 c1050f0:	e1520003 	cmp	r2, r3
 c1050f4:	9afffff8 	bls	c1050dc <fatalerror+0xb0>
 c1050f8:	eaffffde 	b	c105078 <fatalerror+0x4c>
 c1050fc:	0c107cf0 	.word	0x0c107cf0
 c105100:	0c107d04 	.word	0x0c107d04
 c105104:	01d20008 	.word	0x01d20008
 c105108:	0000014f 	.word	0x0000014f
 c10510c:	01d2000c 	.word	0x01d2000c
 c105110:	0001869f 	.word	0x0001869f

0c105114 <sleep>:
 c105114:	e1a0c00d 	mov	ip, sp
 c105118:	e92dd800 	push	{fp, ip, lr, pc}
 c10511c:	e24cb004 	sub	fp, ip, #4
 c105120:	e59f302c 	ldr	r3, [pc, #44]	; c105154 <sleep+0x40>
 c105124:	e59f2028 	ldr	r2, [pc, #40]	; c105154 <sleep+0x40>
 c105128:	e5922000 	ldr	r2, [r2]
 c10512c:	e3822004 	orr	r2, r2, #4
 c105130:	e5832000 	str	r2, [r3]
 c105134:	e59f3018 	ldr	r3, [pc, #24]	; c105154 <sleep+0x40>
 c105138:	e59f2014 	ldr	r2, [pc, #20]	; c105154 <sleep+0x40>
 c10513c:	e5922000 	ldr	r2, [r2]
 c105140:	e3c22004 	bic	r2, r2, #4
 c105144:	e5832000 	str	r2, [r3]
 c105148:	e24bd00c 	sub	sp, fp, #12
 c10514c:	e89d6800 	ldm	sp, {fp, sp, lr}
 c105150:	e12fff1e 	bx	lr
 c105154:	01d80004 	.word	0x01d80004

0c105158 <timers_init>:
 c105158:	e1a0c00d 	mov	ip, sp
 c10515c:	e92dd800 	push	{fp, ip, lr, pc}
 c105160:	e24cb004 	sub	fp, ip, #4
 c105164:	e3a00003 	mov	r0, #3
 c105168:	ebfff932 	bl	c103638 <power_on>
 c10516c:	e59f30bc 	ldr	r3, [pc, #188]	; c105230 <timers_init+0xd8>
 c105170:	e3a02000 	mov	r2, #0
 c105174:	e5832000 	str	r2, [r3]
 c105178:	e59f30b4 	ldr	r3, [pc, #180]	; c105234 <timers_init+0xdc>
 c10517c:	e3a02000 	mov	r2, #0
 c105180:	e5832000 	str	r2, [r3]
 c105184:	e59f30ac 	ldr	r3, [pc, #172]	; c105238 <timers_init+0xe0>
 c105188:	e3a02000 	mov	r2, #0
 c10518c:	e5832000 	str	r2, [r3]
 c105190:	e59f30a4 	ldr	r3, [pc, #164]	; c10523c <timers_init+0xe4>
 c105194:	e3a02000 	mov	r2, #0
 c105198:	e5832000 	str	r2, [r3]
 c10519c:	e59f309c 	ldr	r3, [pc, #156]	; c105240 <timers_init+0xe8>
 c1051a0:	e3a02000 	mov	r2, #0
 c1051a4:	e5832000 	str	r2, [r3]
 c1051a8:	e59f3094 	ldr	r3, [pc, #148]	; c105244 <timers_init+0xec>
 c1051ac:	e3a02000 	mov	r2, #0
 c1051b0:	e5832000 	str	r2, [r3]
 c1051b4:	e59f308c 	ldr	r3, [pc, #140]	; c105248 <timers_init+0xf0>
 c1051b8:	e3a02000 	mov	r2, #0
 c1051bc:	e5832000 	str	r2, [r3]
 c1051c0:	e59f3084 	ldr	r3, [pc, #132]	; c10524c <timers_init+0xf4>
 c1051c4:	e3a02000 	mov	r2, #0
 c1051c8:	e5832000 	str	r2, [r3]
 c1051cc:	e59f307c 	ldr	r3, [pc, #124]	; c105250 <timers_init+0xf8>
 c1051d0:	e3a02000 	mov	r2, #0
 c1051d4:	e5832000 	str	r2, [r3]
 c1051d8:	e59f3074 	ldr	r3, [pc, #116]	; c105254 <timers_init+0xfc>
 c1051dc:	e3a02000 	mov	r2, #0
 c1051e0:	e5832000 	str	r2, [r3]
 c1051e4:	e59f306c 	ldr	r3, [pc, #108]	; c105258 <timers_init+0x100>
 c1051e8:	e3a02000 	mov	r2, #0
 c1051ec:	e5832000 	str	r2, [r3]
 c1051f0:	e59f3064 	ldr	r3, [pc, #100]	; c10525c <timers_init+0x104>
 c1051f4:	e3a02000 	mov	r2, #0
 c1051f8:	e5832000 	str	r2, [r3]
 c1051fc:	e59f305c 	ldr	r3, [pc, #92]	; c105260 <timers_init+0x108>
 c105200:	e3a02000 	mov	r2, #0
 c105204:	e5832000 	str	r2, [r3]
 c105208:	e59f3054 	ldr	r3, [pc, #84]	; c105264 <timers_init+0x10c>
 c10520c:	e59f2054 	ldr	r2, [pc, #84]	; c105268 <timers_init+0x110>
 c105210:	e5832000 	str	r2, [r3]
 c105214:	e59f3048 	ldr	r3, [pc, #72]	; c105264 <timers_init+0x10c>
 c105218:	e3a02000 	mov	r2, #0
 c10521c:	e5832000 	str	r2, [r3]
 c105220:	eb000011 	bl	c10526c <sw_delay_init>
 c105224:	e24bd00c 	sub	sp, fp, #12
 c105228:	e89d6800 	ldm	sp, {fp, sp, lr}
 c10522c:	e12fff1e 	bx	lr
 c105230:	01d50000 	.word	0x01d50000
 c105234:	01d50004 	.word	0x01d50004
 c105238:	01d5000c 	.word	0x01d5000c
 c10523c:	01d50010 	.word	0x01d50010
 c105240:	01d50018 	.word	0x01d50018
 c105244:	01d5001c 	.word	0x01d5001c
 c105248:	01d50024 	.word	0x01d50024
 c10524c:	01d50028 	.word	0x01d50028
 c105250:	01d50030 	.word	0x01d50030
 c105254:	01d50034 	.word	0x01d50034
 c105258:	01d5003c 	.word	0x01d5003c
 c10525c:	01d50040 	.word	0x01d50040
 c105260:	01d50048 	.word	0x01d50048
 c105264:	01d50008 	.word	0x01d50008
 c105268:	02222202 	.word	0x02222202

0c10526c <sw_delay_init>:
 c10526c:	e1a0c00d 	mov	ip, sp
 c105270:	e92dd810 	push	{r4, fp, ip, lr, pc}
 c105274:	e24cb004 	sub	fp, ip, #4
 c105278:	e24dd00c 	sub	sp, sp, #12
 c10527c:	eb0000d2 	bl	c1055cc <timer3_start>
 c105280:	e59f3088 	ldr	r3, [pc, #136]	; c105310 <sw_delay_init+0xa4>
 c105284:	e50b3018 	str	r3, [fp, #-24]	; 0xffffffe8
 c105288:	ea000002 	b	c105298 <sw_delay_init+0x2c>
 c10528c:	e51b3018 	ldr	r3, [fp, #-24]	; 0xffffffe8
 c105290:	e2433001 	sub	r3, r3, #1
 c105294:	e50b3018 	str	r3, [fp, #-24]	; 0xffffffe8
 c105298:	e51b3018 	ldr	r3, [fp, #-24]	; 0xffffffe8
 c10529c:	e3530000 	cmp	r3, #0
 c1052a0:	1afffff9 	bne	c10528c <sw_delay_init+0x20>
 c1052a4:	eb0000ff 	bl	c1056a8 <timer3_stop>
 c1052a8:	e1a03000 	mov	r3, r0
 c1052ac:	e1a02003 	mov	r2, r3
 c1052b0:	e1a03002 	mov	r3, r2
 c1052b4:	e3a04000 	mov	r4, #0
 c1052b8:	e3a00315 	mov	r0, #1409286144	; 0x54000000
 c1052bc:	e2800abe 	add	r0, r0, #778240	; 0xbe000
 c1052c0:	e2800b01 	add	r0, r0, #1024	; 0x400
 c1052c4:	e3a01002 	mov	r1, #2
 c1052c8:	e1a02003 	mov	r2, r3
 c1052cc:	e1a03004 	mov	r3, r4
 c1052d0:	eb0005f7 	bl	c106ab4 <__aeabi_uldivmod>
 c1052d4:	e1a03000 	mov	r3, r0
 c1052d8:	e1a04001 	mov	r4, r1
 c1052dc:	e1a02003 	mov	r2, r3
 c1052e0:	e59f302c 	ldr	r3, [pc, #44]	; c105314 <sw_delay_init+0xa8>
 c1052e4:	e5832000 	str	r2, [r3]
 c1052e8:	e59f3024 	ldr	r3, [pc, #36]	; c105314 <sw_delay_init+0xa8>
 c1052ec:	e5932000 	ldr	r2, [r3]
 c1052f0:	e59f3020 	ldr	r3, [pc, #32]	; c105318 <sw_delay_init+0xac>
 c1052f4:	e0831392 	umull	r1, r3, r2, r3
 c1052f8:	e1a02323 	lsr	r2, r3, #6
 c1052fc:	e59f3018 	ldr	r3, [pc, #24]	; c10531c <sw_delay_init+0xb0>
 c105300:	e5832000 	str	r2, [r3]
 c105304:	e24bd010 	sub	sp, fp, #16
 c105308:	e89d6810 	ldm	sp, {r4, fp, sp, lr}
 c10530c:	e12fff1e 	bx	lr
 c105310:	000f4240 	.word	0x000f4240
 c105314:	0c112378 	.word	0x0c112378
 c105318:	10624dd3 	.word	0x10624dd3
 c10531c:	0c112374 	.word	0x0c112374

0c105320 <timer3_delay_ms>:
 c105320:	e1a0c00d 	mov	ip, sp
 c105324:	e92dd800 	push	{fp, ip, lr, pc}
 c105328:	e24cb004 	sub	fp, ip, #4
 c10532c:	e24dd008 	sub	sp, sp, #8
 c105330:	e1a03000 	mov	r3, r0
 c105334:	e14b30be 	strh	r3, [fp, #-14]
 c105338:	ea00002b 	b	c1053ec <timer3_delay_ms+0xcc>
 c10533c:	e59f30c0 	ldr	r3, [pc, #192]	; c105404 <timer3_delay_ms+0xe4>
 c105340:	e59f20bc 	ldr	r2, [pc, #188]	; c105404 <timer3_delay_ms+0xe4>
 c105344:	e5922000 	ldr	r2, [r2]
 c105348:	e3c22cff 	bic	r2, r2, #65280	; 0xff00
 c10534c:	e5832000 	str	r2, [r3]
 c105350:	e59f30b0 	ldr	r3, [pc, #176]	; c105408 <timer3_delay_ms+0xe8>
 c105354:	e59f20ac 	ldr	r2, [pc, #172]	; c105408 <timer3_delay_ms+0xe8>
 c105358:	e5922000 	ldr	r2, [r2]
 c10535c:	e3c22a0f 	bic	r2, r2, #61440	; 0xf000
 c105360:	e5832000 	str	r2, [r3]
 c105364:	e59f30a0 	ldr	r3, [pc, #160]	; c10540c <timer3_delay_ms+0xec>
 c105368:	e59f20a0 	ldr	r2, [pc, #160]	; c105410 <timer3_delay_ms+0xf0>
 c10536c:	e5921000 	ldr	r1, [r2]
 c105370:	e59f209c 	ldr	r2, [pc, #156]	; c105414 <timer3_delay_ms+0xf4>
 c105374:	e0820291 	umull	r0, r2, r1, r2
 c105378:	e1a023a2 	lsr	r2, r2, #7
 c10537c:	e1a02802 	lsl	r2, r2, #16
 c105380:	e1a02822 	lsr	r2, r2, #16
 c105384:	e5832000 	str	r2, [r3]
 c105388:	e59f3088 	ldr	r3, [pc, #136]	; c105418 <timer3_delay_ms+0xf8>
 c10538c:	e59f2084 	ldr	r2, [pc, #132]	; c105418 <timer3_delay_ms+0xf8>
 c105390:	e5922000 	ldr	r2, [r2]
 c105394:	e3c2280f 	bic	r2, r2, #983040	; 0xf0000
 c105398:	e3822802 	orr	r2, r2, #131072	; 0x20000
 c10539c:	e5832000 	str	r2, [r3]
 c1053a0:	e59f3070 	ldr	r3, [pc, #112]	; c105418 <timer3_delay_ms+0xf8>
 c1053a4:	e59f206c 	ldr	r2, [pc, #108]	; c105418 <timer3_delay_ms+0xf8>
 c1053a8:	e5922000 	ldr	r2, [r2]
 c1053ac:	e3c2280f 	bic	r2, r2, #983040	; 0xf0000
 c1053b0:	e3822801 	orr	r2, r2, #65536	; 0x10000
 c1053b4:	e5832000 	str	r2, [r3]
 c1053b8:	e1a00000 	nop			; (mov r0, r0)
 c1053bc:	e59f3058 	ldr	r3, [pc, #88]	; c10541c <timer3_delay_ms+0xfc>
 c1053c0:	e5933000 	ldr	r3, [r3]
 c1053c4:	e3530000 	cmp	r3, #0
 c1053c8:	0afffffb 	beq	c1053bc <timer3_delay_ms+0x9c>
 c1053cc:	e1a00000 	nop			; (mov r0, r0)
 c1053d0:	e59f3044 	ldr	r3, [pc, #68]	; c10541c <timer3_delay_ms+0xfc>
 c1053d4:	e5933000 	ldr	r3, [r3]
 c1053d8:	e3530000 	cmp	r3, #0
 c1053dc:	1afffffb 	bne	c1053d0 <timer3_delay_ms+0xb0>
 c1053e0:	e15b30be 	ldrh	r3, [fp, #-14]
 c1053e4:	e2433001 	sub	r3, r3, #1
 c1053e8:	e14b30be 	strh	r3, [fp, #-14]
 c1053ec:	e15b30be 	ldrh	r3, [fp, #-14]
 c1053f0:	e3530000 	cmp	r3, #0
 c1053f4:	1affffd0 	bne	c10533c <timer3_delay_ms+0x1c>
 c1053f8:	e24bd00c 	sub	sp, fp, #12
 c1053fc:	e89d6800 	ldm	sp, {fp, sp, lr}
 c105400:	e12fff1e 	bx	lr
 c105404:	01d50000 	.word	0x01d50000
 c105408:	01d50004 	.word	0x01d50004
 c10540c:	01d50030 	.word	0x01d50030
 c105410:	0c108d30 	.word	0x0c108d30
 c105414:	10624dd3 	.word	0x10624dd3
 c105418:	01d50008 	.word	0x01d50008
 c10541c:	01d50038 	.word	0x01d50038

0c105420 <sw_delay_ms>:
 c105420:	e1a0c00d 	mov	ip, sp
 c105424:	e92dd800 	push	{fp, ip, lr, pc}
 c105428:	e24cb004 	sub	fp, ip, #4
 c10542c:	e24dd010 	sub	sp, sp, #16
 c105430:	e1a03000 	mov	r3, r0
 c105434:	e14b31b6 	strh	r3, [fp, #-22]	; 0xffffffea
 c105438:	e15b31b6 	ldrh	r3, [fp, #-22]	; 0xffffffea
 c10543c:	e59f2030 	ldr	r2, [pc, #48]	; c105474 <sw_delay_ms+0x54>
 c105440:	e5922000 	ldr	r2, [r2]
 c105444:	e0030392 	mul	r3, r2, r3
 c105448:	e50b3010 	str	r3, [fp, #-16]
 c10544c:	ea000002 	b	c10545c <sw_delay_ms+0x3c>
 c105450:	e51b3010 	ldr	r3, [fp, #-16]
 c105454:	e2433001 	sub	r3, r3, #1
 c105458:	e50b3010 	str	r3, [fp, #-16]
 c10545c:	e51b3010 	ldr	r3, [fp, #-16]
 c105460:	e3530000 	cmp	r3, #0
 c105464:	1afffff9 	bne	c105450 <sw_delay_ms+0x30>
 c105468:	e24bd00c 	sub	sp, fp, #12
 c10546c:	e89d6800 	ldm	sp, {fp, sp, lr}
 c105470:	e12fff1e 	bx	lr
 c105474:	0c112374 	.word	0x0c112374

0c105478 <timer3_delay_s>:
 c105478:	e1a0c00d 	mov	ip, sp
 c10547c:	e92dd800 	push	{fp, ip, lr, pc}
 c105480:	e24cb004 	sub	fp, ip, #4
 c105484:	e24dd008 	sub	sp, sp, #8
 c105488:	e1a03000 	mov	r3, r0
 c10548c:	e14b30be 	strh	r3, [fp, #-14]
 c105490:	ea00002b 	b	c105544 <timer3_delay_s+0xcc>
 c105494:	e59f30c0 	ldr	r3, [pc, #192]	; c10555c <timer3_delay_s+0xe4>
 c105498:	e59f20bc 	ldr	r2, [pc, #188]	; c10555c <timer3_delay_s+0xe4>
 c10549c:	e5922000 	ldr	r2, [r2]
 c1054a0:	e3c22cff 	bic	r2, r2, #65280	; 0xff00
 c1054a4:	e3822c3f 	orr	r2, r2, #16128	; 0x3f00
 c1054a8:	e5832000 	str	r2, [r3]
 c1054ac:	e59f30ac 	ldr	r3, [pc, #172]	; c105560 <timer3_delay_s+0xe8>
 c1054b0:	e59f20a8 	ldr	r2, [pc, #168]	; c105560 <timer3_delay_s+0xe8>
 c1054b4:	e5922000 	ldr	r2, [r2]
 c1054b8:	e3c22a0f 	bic	r2, r2, #61440	; 0xf000
 c1054bc:	e3822901 	orr	r2, r2, #16384	; 0x4000
 c1054c0:	e5832000 	str	r2, [r3]
 c1054c4:	e59f3098 	ldr	r3, [pc, #152]	; c105564 <timer3_delay_s+0xec>
 c1054c8:	e59f2098 	ldr	r2, [pc, #152]	; c105568 <timer3_delay_s+0xf0>
 c1054cc:	e5922000 	ldr	r2, [r2]
 c1054d0:	e1a025a2 	lsr	r2, r2, #11
 c1054d4:	e1a02802 	lsl	r2, r2, #16
 c1054d8:	e1a02822 	lsr	r2, r2, #16
 c1054dc:	e5832000 	str	r2, [r3]
 c1054e0:	e59f3084 	ldr	r3, [pc, #132]	; c10556c <timer3_delay_s+0xf4>
 c1054e4:	e59f2080 	ldr	r2, [pc, #128]	; c10556c <timer3_delay_s+0xf4>
 c1054e8:	e5922000 	ldr	r2, [r2]
 c1054ec:	e3c2280f 	bic	r2, r2, #983040	; 0xf0000
 c1054f0:	e3822802 	orr	r2, r2, #131072	; 0x20000
 c1054f4:	e5832000 	str	r2, [r3]
 c1054f8:	e59f306c 	ldr	r3, [pc, #108]	; c10556c <timer3_delay_s+0xf4>
 c1054fc:	e59f2068 	ldr	r2, [pc, #104]	; c10556c <timer3_delay_s+0xf4>
 c105500:	e5922000 	ldr	r2, [r2]
 c105504:	e3c2280f 	bic	r2, r2, #983040	; 0xf0000
 c105508:	e3822801 	orr	r2, r2, #65536	; 0x10000
 c10550c:	e5832000 	str	r2, [r3]
 c105510:	e1a00000 	nop			; (mov r0, r0)
 c105514:	e59f3054 	ldr	r3, [pc, #84]	; c105570 <timer3_delay_s+0xf8>
 c105518:	e5933000 	ldr	r3, [r3]
 c10551c:	e3530000 	cmp	r3, #0
 c105520:	0afffffb 	beq	c105514 <timer3_delay_s+0x9c>
 c105524:	e1a00000 	nop			; (mov r0, r0)
 c105528:	e59f3040 	ldr	r3, [pc, #64]	; c105570 <timer3_delay_s+0xf8>
 c10552c:	e5933000 	ldr	r3, [r3]
 c105530:	e3530000 	cmp	r3, #0
 c105534:	1afffffb 	bne	c105528 <timer3_delay_s+0xb0>
 c105538:	e15b30be 	ldrh	r3, [fp, #-14]
 c10553c:	e2433001 	sub	r3, r3, #1
 c105540:	e14b30be 	strh	r3, [fp, #-14]
 c105544:	e15b30be 	ldrh	r3, [fp, #-14]
 c105548:	e3530000 	cmp	r3, #0
 c10554c:	1affffd0 	bne	c105494 <timer3_delay_s+0x1c>
 c105550:	e24bd00c 	sub	sp, fp, #12
 c105554:	e89d6800 	ldm	sp, {fp, sp, lr}
 c105558:	e12fff1e 	bx	lr
 c10555c:	01d50000 	.word	0x01d50000
 c105560:	01d50004 	.word	0x01d50004
 c105564:	01d50030 	.word	0x01d50030
 c105568:	0c108d30 	.word	0x0c108d30
 c10556c:	01d50008 	.word	0x01d50008
 c105570:	01d50038 	.word	0x01d50038

0c105574 <sw_delay_s>:
 c105574:	e1a0c00d 	mov	ip, sp
 c105578:	e92dd800 	push	{fp, ip, lr, pc}
 c10557c:	e24cb004 	sub	fp, ip, #4
 c105580:	e24dd010 	sub	sp, sp, #16
 c105584:	e1a03000 	mov	r3, r0
 c105588:	e14b31b6 	strh	r3, [fp, #-22]	; 0xffffffea
 c10558c:	e15b31b6 	ldrh	r3, [fp, #-22]	; 0xffffffea
 c105590:	e59f2030 	ldr	r2, [pc, #48]	; c1055c8 <sw_delay_s+0x54>
 c105594:	e5922000 	ldr	r2, [r2]
 c105598:	e0030392 	mul	r3, r2, r3
 c10559c:	e50b3010 	str	r3, [fp, #-16]
 c1055a0:	ea000002 	b	c1055b0 <sw_delay_s+0x3c>
 c1055a4:	e51b3010 	ldr	r3, [fp, #-16]
 c1055a8:	e2433001 	sub	r3, r3, #1
 c1055ac:	e50b3010 	str	r3, [fp, #-16]
 c1055b0:	e51b3010 	ldr	r3, [fp, #-16]
 c1055b4:	e3530000 	cmp	r3, #0
 c1055b8:	1afffff9 	bne	c1055a4 <sw_delay_s+0x30>
 c1055bc:	e24bd00c 	sub	sp, fp, #12
 c1055c0:	e89d6800 	ldm	sp, {fp, sp, lr}
 c1055c4:	e12fff1e 	bx	lr
 c1055c8:	0c112378 	.word	0x0c112378

0c1055cc <timer3_start>:
 c1055cc:	e1a0c00d 	mov	ip, sp
 c1055d0:	e92dd800 	push	{fp, ip, lr, pc}
 c1055d4:	e24cb004 	sub	fp, ip, #4
 c1055d8:	e59f30a8 	ldr	r3, [pc, #168]	; c105688 <timer3_start+0xbc>
 c1055dc:	e59f20a4 	ldr	r2, [pc, #164]	; c105688 <timer3_start+0xbc>
 c1055e0:	e5922000 	ldr	r2, [r2]
 c1055e4:	e3c21cff 	bic	r1, r2, #65280	; 0xff00
 c1055e8:	e59f209c 	ldr	r2, [pc, #156]	; c10568c <timer3_start+0xc0>
 c1055ec:	e5920000 	ldr	r0, [r2]
 c1055f0:	e59f2098 	ldr	r2, [pc, #152]	; c105690 <timer3_start+0xc4>
 c1055f4:	e082c290 	umull	ip, r2, r0, r2
 c1055f8:	e1a02922 	lsr	r2, r2, #18
 c1055fc:	e20220ff 	and	r2, r2, #255	; 0xff
 c105600:	e2422001 	sub	r2, r2, #1
 c105604:	e20220ff 	and	r2, r2, #255	; 0xff
 c105608:	e1a02402 	lsl	r2, r2, #8
 c10560c:	e1812002 	orr	r2, r1, r2
 c105610:	e5832000 	str	r2, [r3]
 c105614:	e59f3078 	ldr	r3, [pc, #120]	; c105694 <timer3_start+0xc8>
 c105618:	e59f2074 	ldr	r2, [pc, #116]	; c105694 <timer3_start+0xc8>
 c10561c:	e5922000 	ldr	r2, [r2]
 c105620:	e3c22a0f 	bic	r2, r2, #61440	; 0xf000
 c105624:	e3822901 	orr	r2, r2, #16384	; 0x4000
 c105628:	e5832000 	str	r2, [r3]
 c10562c:	e59f3064 	ldr	r3, [pc, #100]	; c105698 <timer3_start+0xcc>
 c105630:	e59f2064 	ldr	r2, [pc, #100]	; c10569c <timer3_start+0xd0>
 c105634:	e5832000 	str	r2, [r3]
 c105638:	e59f3060 	ldr	r3, [pc, #96]	; c1056a0 <timer3_start+0xd4>
 c10563c:	e59f205c 	ldr	r2, [pc, #92]	; c1056a0 <timer3_start+0xd4>
 c105640:	e5922000 	ldr	r2, [r2]
 c105644:	e3c2280f 	bic	r2, r2, #983040	; 0xf0000
 c105648:	e3822802 	orr	r2, r2, #131072	; 0x20000
 c10564c:	e5832000 	str	r2, [r3]
 c105650:	e59f3048 	ldr	r3, [pc, #72]	; c1056a0 <timer3_start+0xd4>
 c105654:	e59f2044 	ldr	r2, [pc, #68]	; c1056a0 <timer3_start+0xd4>
 c105658:	e5922000 	ldr	r2, [r2]
 c10565c:	e3c2280f 	bic	r2, r2, #983040	; 0xf0000
 c105660:	e3822801 	orr	r2, r2, #65536	; 0x10000
 c105664:	e5832000 	str	r2, [r3]
 c105668:	e1a00000 	nop			; (mov r0, r0)
 c10566c:	e59f3030 	ldr	r3, [pc, #48]	; c1056a4 <timer3_start+0xd8>
 c105670:	e5933000 	ldr	r3, [r3]
 c105674:	e3530000 	cmp	r3, #0
 c105678:	0afffffb 	beq	c10566c <timer3_start+0xa0>
 c10567c:	e24bd00c 	sub	sp, fp, #12
 c105680:	e89d6800 	ldm	sp, {fp, sp, lr}
 c105684:	e12fff1e 	bx	lr
 c105688:	01d50000 	.word	0x01d50000
 c10568c:	0c108d30 	.word	0x0c108d30
 c105690:	d1b71759 	.word	0xd1b71759
 c105694:	01d50004 	.word	0x01d50004
 c105698:	01d50030 	.word	0x01d50030
 c10569c:	0000ffff 	.word	0x0000ffff
 c1056a0:	01d50008 	.word	0x01d50008
 c1056a4:	01d50038 	.word	0x01d50038

0c1056a8 <timer3_stop>:
 c1056a8:	e1a0c00d 	mov	ip, sp
 c1056ac:	e92dd800 	push	{fp, ip, lr, pc}
 c1056b0:	e24cb004 	sub	fp, ip, #4
 c1056b4:	e59f3038 	ldr	r3, [pc, #56]	; c1056f4 <timer3_stop+0x4c>
 c1056b8:	e59f2034 	ldr	r2, [pc, #52]	; c1056f4 <timer3_stop+0x4c>
 c1056bc:	e5922000 	ldr	r2, [r2]
 c1056c0:	e3c22801 	bic	r2, r2, #65536	; 0x10000
 c1056c4:	e5832000 	str	r2, [r3]
 c1056c8:	e59f3028 	ldr	r3, [pc, #40]	; c1056f8 <timer3_stop+0x50>
 c1056cc:	e5933000 	ldr	r3, [r3]
 c1056d0:	e1a03803 	lsl	r3, r3, #16
 c1056d4:	e1a03823 	lsr	r3, r3, #16
 c1056d8:	e1e03003 	mvn	r3, r3
 c1056dc:	e1a03803 	lsl	r3, r3, #16
 c1056e0:	e1a03823 	lsr	r3, r3, #16
 c1056e4:	e1a00003 	mov	r0, r3
 c1056e8:	e24bd00c 	sub	sp, fp, #12
 c1056ec:	e89d6800 	ldm	sp, {fp, sp, lr}
 c1056f0:	e12fff1e 	bx	lr
 c1056f4:	01d50008 	.word	0x01d50008
 c1056f8:	01d50038 	.word	0x01d50038

0c1056fc <timer3_start_timeout>:
 c1056fc:	e1a0c00d 	mov	ip, sp
 c105700:	e92dd800 	push	{fp, ip, lr, pc}
 c105704:	e24cb004 	sub	fp, ip, #4
 c105708:	e24dd008 	sub	sp, sp, #8
 c10570c:	e1a03000 	mov	r3, r0
 c105710:	e14b30be 	strh	r3, [fp, #-14]
 c105714:	e59f30a8 	ldr	r3, [pc, #168]	; c1057c4 <timer3_start_timeout+0xc8>
 c105718:	e59f20a4 	ldr	r2, [pc, #164]	; c1057c4 <timer3_start_timeout+0xc8>
 c10571c:	e5922000 	ldr	r2, [r2]
 c105720:	e3c21cff 	bic	r1, r2, #65280	; 0xff00
 c105724:	e59f209c 	ldr	r2, [pc, #156]	; c1057c8 <timer3_start_timeout+0xcc>
 c105728:	e5920000 	ldr	r0, [r2]
 c10572c:	e59f2098 	ldr	r2, [pc, #152]	; c1057cc <timer3_start_timeout+0xd0>
 c105730:	e082c290 	umull	ip, r2, r0, r2
 c105734:	e1a02922 	lsr	r2, r2, #18
 c105738:	e20220ff 	and	r2, r2, #255	; 0xff
 c10573c:	e2422001 	sub	r2, r2, #1
 c105740:	e20220ff 	and	r2, r2, #255	; 0xff
 c105744:	e1a02402 	lsl	r2, r2, #8
 c105748:	e1812002 	orr	r2, r1, r2
 c10574c:	e5832000 	str	r2, [r3]
 c105750:	e59f3078 	ldr	r3, [pc, #120]	; c1057d0 <timer3_start_timeout+0xd4>
 c105754:	e59f2074 	ldr	r2, [pc, #116]	; c1057d0 <timer3_start_timeout+0xd4>
 c105758:	e5922000 	ldr	r2, [r2]
 c10575c:	e3c22a0f 	bic	r2, r2, #61440	; 0xf000
 c105760:	e3822901 	orr	r2, r2, #16384	; 0x4000
 c105764:	e5832000 	str	r2, [r3]
 c105768:	e59f3064 	ldr	r3, [pc, #100]	; c1057d4 <timer3_start_timeout+0xd8>
 c10576c:	e15b20be 	ldrh	r2, [fp, #-14]
 c105770:	e5832000 	str	r2, [r3]
 c105774:	e59f305c 	ldr	r3, [pc, #92]	; c1057d8 <timer3_start_timeout+0xdc>
 c105778:	e59f2058 	ldr	r2, [pc, #88]	; c1057d8 <timer3_start_timeout+0xdc>
 c10577c:	e5922000 	ldr	r2, [r2]
 c105780:	e3c2280f 	bic	r2, r2, #983040	; 0xf0000
 c105784:	e3822802 	orr	r2, r2, #131072	; 0x20000
 c105788:	e5832000 	str	r2, [r3]
 c10578c:	e59f3044 	ldr	r3, [pc, #68]	; c1057d8 <timer3_start_timeout+0xdc>
 c105790:	e59f2040 	ldr	r2, [pc, #64]	; c1057d8 <timer3_start_timeout+0xdc>
 c105794:	e5922000 	ldr	r2, [r2]
 c105798:	e3c2280f 	bic	r2, r2, #983040	; 0xf0000
 c10579c:	e3822801 	orr	r2, r2, #65536	; 0x10000
 c1057a0:	e5832000 	str	r2, [r3]
 c1057a4:	e1a00000 	nop			; (mov r0, r0)
 c1057a8:	e59f302c 	ldr	r3, [pc, #44]	; c1057dc <timer3_start_timeout+0xe0>
 c1057ac:	e5933000 	ldr	r3, [r3]
 c1057b0:	e3530000 	cmp	r3, #0
 c1057b4:	0afffffb 	beq	c1057a8 <timer3_start_timeout+0xac>
 c1057b8:	e24bd00c 	sub	sp, fp, #12
 c1057bc:	e89d6800 	ldm	sp, {fp, sp, lr}
 c1057c0:	e12fff1e 	bx	lr
 c1057c4:	01d50000 	.word	0x01d50000
 c1057c8:	0c108d30 	.word	0x0c108d30
 c1057cc:	d1b71759 	.word	0xd1b71759
 c1057d0:	01d50004 	.word	0x01d50004
 c1057d4:	01d50030 	.word	0x01d50030
 c1057d8:	01d50008 	.word	0x01d50008
 c1057dc:	01d50038 	.word	0x01d50038

0c1057e0 <timer3_timeout>:
 c1057e0:	e1a0c00d 	mov	ip, sp
 c1057e4:	e92dd800 	push	{fp, ip, lr, pc}
 c1057e8:	e24cb004 	sub	fp, ip, #4
 c1057ec:	e59f3024 	ldr	r3, [pc, #36]	; c105818 <timer3_timeout+0x38>
 c1057f0:	e5933000 	ldr	r3, [r3]
 c1057f4:	e3530000 	cmp	r3, #0
 c1057f8:	13a03000 	movne	r3, #0
 c1057fc:	03a03001 	moveq	r3, #1
 c105800:	e1a03803 	lsl	r3, r3, #16
 c105804:	e1a03823 	lsr	r3, r3, #16
 c105808:	e1a00003 	mov	r0, r3
 c10580c:	e24bd00c 	sub	sp, fp, #12
 c105810:	e89d6800 	ldm	sp, {fp, sp, lr}
 c105814:	e12fff1e 	bx	lr
 c105818:	01d50038 	.word	0x01d50038

0c10581c <timer0_open_tick>:
 c10581c:	e1a0c00d 	mov	ip, sp
 c105820:	e92dd810 	push	{r4, fp, ip, lr, pc}
 c105824:	e24cb004 	sub	fp, ip, #4
 c105828:	e24dd00c 	sub	sp, sp, #12
 c10582c:	e50b0018 	str	r0, [fp, #-24]	; 0xffffffe8
 c105830:	e1a03001 	mov	r3, r1
 c105834:	e14b31ba 	strh	r3, [fp, #-26]	; 0xffffffe6
 c105838:	e59f3204 	ldr	r3, [pc, #516]	; c105a44 <timer0_open_tick+0x228>
 c10583c:	e59f2200 	ldr	r2, [pc, #512]	; c105a44 <timer0_open_tick+0x228>
 c105840:	e5922000 	ldr	r2, [r2]
 c105844:	e3822088 	orr	r2, r2, #136	; 0x88
 c105848:	e5832000 	str	r2, [r3]
 c10584c:	e59f31f4 	ldr	r3, [pc, #500]	; c105a48 <timer0_open_tick+0x22c>
 c105850:	e51b2018 	ldr	r2, [fp, #-24]	; 0xffffffe8
 c105854:	e5832000 	str	r2, [r3]
 c105858:	e59f31ec 	ldr	r3, [pc, #492]	; c105a4c <timer0_open_tick+0x230>
 c10585c:	e3a02a02 	mov	r2, #8192	; 0x2000
 c105860:	e5832000 	str	r2, [r3]
 c105864:	e59f21e4 	ldr	r2, [pc, #484]	; c105a50 <timer0_open_tick+0x234>
 c105868:	e59f31e0 	ldr	r3, [pc, #480]	; c105a50 <timer0_open_tick+0x234>
 c10586c:	e5933000 	ldr	r3, [r3]
 c105870:	e3c33301 	bic	r3, r3, #67108864	; 0x4000000
 c105874:	e3c33a02 	bic	r3, r3, #8192	; 0x2000
 c105878:	e5823000 	str	r3, [r2]
 c10587c:	e15b31ba 	ldrh	r3, [fp, #-26]	; 0xffffffe6
 c105880:	e3530000 	cmp	r3, #0
 c105884:	0a000018 	beq	c1058ec <timer0_open_tick+0xd0>
 c105888:	e15b31ba 	ldrh	r3, [fp, #-26]	; 0xffffffe6
 c10588c:	e353000a 	cmp	r3, #10
 c105890:	8a000015 	bhi	c1058ec <timer0_open_tick+0xd0>
 c105894:	e59f31b8 	ldr	r3, [pc, #440]	; c105a54 <timer0_open_tick+0x238>
 c105898:	e59f21b4 	ldr	r2, [pc, #436]	; c105a54 <timer0_open_tick+0x238>
 c10589c:	e5922000 	ldr	r2, [r2]
 c1058a0:	e3c220ff 	bic	r2, r2, #255	; 0xff
 c1058a4:	e3822031 	orr	r2, r2, #49	; 0x31
 c1058a8:	e5832000 	str	r2, [r3]
 c1058ac:	e59f31a4 	ldr	r3, [pc, #420]	; c105a58 <timer0_open_tick+0x23c>
 c1058b0:	e59f21a0 	ldr	r2, [pc, #416]	; c105a58 <timer0_open_tick+0x23c>
 c1058b4:	e5922000 	ldr	r2, [r2]
 c1058b8:	e3c2200f 	bic	r2, r2, #15
 c1058bc:	e3822004 	orr	r2, r2, #4
 c1058c0:	e5832000 	str	r2, [r3]
 c1058c4:	e59f4190 	ldr	r4, [pc, #400]	; c105a5c <timer0_open_tick+0x240>
 c1058c8:	e15b31ba 	ldrh	r3, [fp, #-26]	; 0xffffffe6
 c1058cc:	e59f018c 	ldr	r0, [pc, #396]	; c105a60 <timer0_open_tick+0x244>
 c1058d0:	e1a01003 	mov	r1, r3
 c1058d4:	eb000430 	bl	c10699c <__aeabi_uidiv>
 c1058d8:	e1a03000 	mov	r3, r0
 c1058dc:	e1a03803 	lsl	r3, r3, #16
 c1058e0:	e1a03823 	lsr	r3, r3, #16
 c1058e4:	e5843000 	str	r3, [r4]
 c1058e8:	ea000046 	b	c105a08 <timer0_open_tick+0x1ec>
 c1058ec:	e15b31ba 	ldrh	r3, [fp, #-26]	; 0xffffffe6
 c1058f0:	e353000a 	cmp	r3, #10
 c1058f4:	9a000016 	bls	c105954 <timer0_open_tick+0x138>
 c1058f8:	e15b31ba 	ldrh	r3, [fp, #-26]	; 0xffffffe6
 c1058fc:	e3530064 	cmp	r3, #100	; 0x64
 c105900:	8a000013 	bhi	c105954 <timer0_open_tick+0x138>
 c105904:	e59f3148 	ldr	r3, [pc, #328]	; c105a54 <timer0_open_tick+0x238>
 c105908:	e59f2144 	ldr	r2, [pc, #324]	; c105a54 <timer0_open_tick+0x238>
 c10590c:	e5922000 	ldr	r2, [r2]
 c105910:	e3c220ff 	bic	r2, r2, #255	; 0xff
 c105914:	e3822004 	orr	r2, r2, #4
 c105918:	e5832000 	str	r2, [r3]
 c10591c:	e59f3134 	ldr	r3, [pc, #308]	; c105a58 <timer0_open_tick+0x23c>
 c105920:	e59f2130 	ldr	r2, [pc, #304]	; c105a58 <timer0_open_tick+0x23c>
 c105924:	e5922000 	ldr	r2, [r2]
 c105928:	e3c2200f 	bic	r2, r2, #15
 c10592c:	e3822004 	orr	r2, r2, #4
 c105930:	e5832000 	str	r2, [r3]
 c105934:	e59f4120 	ldr	r4, [pc, #288]	; c105a5c <timer0_open_tick+0x240>
 c105938:	e15b31ba 	ldrh	r3, [fp, #-26]	; 0xffffffe6
 c10593c:	e59f0120 	ldr	r0, [pc, #288]	; c105a64 <timer0_open_tick+0x248>
 c105940:	e1a01003 	mov	r1, r3
 c105944:	eb000414 	bl	c10699c <__aeabi_uidiv>
 c105948:	e1a03000 	mov	r3, r0
 c10594c:	e5843000 	str	r3, [r4]
 c105950:	ea00002c 	b	c105a08 <timer0_open_tick+0x1ec>
 c105954:	e15b31ba 	ldrh	r3, [fp, #-26]	; 0xffffffe6
 c105958:	e3530064 	cmp	r3, #100	; 0x64
 c10595c:	9a000015 	bls	c1059b8 <timer0_open_tick+0x19c>
 c105960:	e15b31ba 	ldrh	r3, [fp, #-26]	; 0xffffffe6
 c105964:	e3530ffa 	cmp	r3, #1000	; 0x3e8
 c105968:	8a000012 	bhi	c1059b8 <timer0_open_tick+0x19c>
 c10596c:	e59f30e0 	ldr	r3, [pc, #224]	; c105a54 <timer0_open_tick+0x238>
 c105970:	e59f20dc 	ldr	r2, [pc, #220]	; c105a54 <timer0_open_tick+0x238>
 c105974:	e5922000 	ldr	r2, [r2]
 c105978:	e3c220ff 	bic	r2, r2, #255	; 0xff
 c10597c:	e5832000 	str	r2, [r3]
 c105980:	e59f30d0 	ldr	r3, [pc, #208]	; c105a58 <timer0_open_tick+0x23c>
 c105984:	e59f20cc 	ldr	r2, [pc, #204]	; c105a58 <timer0_open_tick+0x23c>
 c105988:	e5922000 	ldr	r2, [r2]
 c10598c:	e3c2200f 	bic	r2, r2, #15
 c105990:	e3822003 	orr	r2, r2, #3
 c105994:	e5832000 	str	r2, [r3]
 c105998:	e59f40bc 	ldr	r4, [pc, #188]	; c105a5c <timer0_open_tick+0x240>
 c10599c:	e15b31ba 	ldrh	r3, [fp, #-26]	; 0xffffffe6
 c1059a0:	e59f00c0 	ldr	r0, [pc, #192]	; c105a68 <timer0_open_tick+0x24c>
 c1059a4:	e1a01003 	mov	r1, r3
 c1059a8:	eb0003fb 	bl	c10699c <__aeabi_uidiv>
 c1059ac:	e1a03000 	mov	r3, r0
 c1059b0:	e5843000 	str	r3, [r4]
 c1059b4:	ea000013 	b	c105a08 <timer0_open_tick+0x1ec>
 c1059b8:	e15b31ba 	ldrh	r3, [fp, #-26]	; 0xffffffe6
 c1059bc:	e3530ffa 	cmp	r3, #1000	; 0x3e8
 c1059c0:	9a000010 	bls	c105a08 <timer0_open_tick+0x1ec>
 c1059c4:	e59f3088 	ldr	r3, [pc, #136]	; c105a54 <timer0_open_tick+0x238>
 c1059c8:	e59f2084 	ldr	r2, [pc, #132]	; c105a54 <timer0_open_tick+0x238>
 c1059cc:	e5922000 	ldr	r2, [r2]
 c1059d0:	e3c220ff 	bic	r2, r2, #255	; 0xff
 c1059d4:	e5832000 	str	r2, [r3]
 c1059d8:	e59f3078 	ldr	r3, [pc, #120]	; c105a58 <timer0_open_tick+0x23c>
 c1059dc:	e59f2074 	ldr	r2, [pc, #116]	; c105a58 <timer0_open_tick+0x23c>
 c1059e0:	e5922000 	ldr	r2, [r2]
 c1059e4:	e3c2200f 	bic	r2, r2, #15
 c1059e8:	e5832000 	str	r2, [r3]
 c1059ec:	e59f4068 	ldr	r4, [pc, #104]	; c105a5c <timer0_open_tick+0x240>
 c1059f0:	e15b31ba 	ldrh	r3, [fp, #-26]	; 0xffffffe6
 c1059f4:	e59f0070 	ldr	r0, [pc, #112]	; c105a6c <timer0_open_tick+0x250>
 c1059f8:	e1a01003 	mov	r1, r3
 c1059fc:	eb0003e6 	bl	c10699c <__aeabi_uidiv>
 c105a00:	e1a03000 	mov	r3, r0
 c105a04:	e5843000 	str	r3, [r4]
 c105a08:	e59f3060 	ldr	r3, [pc, #96]	; c105a70 <timer0_open_tick+0x254>
 c105a0c:	e59f205c 	ldr	r2, [pc, #92]	; c105a70 <timer0_open_tick+0x254>
 c105a10:	e5922000 	ldr	r2, [r2]
 c105a14:	e3c2200f 	bic	r2, r2, #15
 c105a18:	e382200a 	orr	r2, r2, #10
 c105a1c:	e5832000 	str	r2, [r3]
 c105a20:	e59f3048 	ldr	r3, [pc, #72]	; c105a70 <timer0_open_tick+0x254>
 c105a24:	e59f2044 	ldr	r2, [pc, #68]	; c105a70 <timer0_open_tick+0x254>
 c105a28:	e5922000 	ldr	r2, [r2]
 c105a2c:	e3c2200f 	bic	r2, r2, #15
 c105a30:	e3822009 	orr	r2, r2, #9
 c105a34:	e5832000 	str	r2, [r3]
 c105a38:	e24bd010 	sub	sp, fp, #16
 c105a3c:	e89d6810 	ldm	sp, {r4, fp, sp, lr}
 c105a40:	e12fff1e 	bx	lr
 c105a44:	01d80004 	.word	0x01d80004
 c105a48:	0c7fff54 	.word	0x0c7fff54
 c105a4c:	01e00024 	.word	0x01e00024
 c105a50:	01e0000c 	.word	0x01e0000c
 c105a54:	01d50000 	.word	0x01d50000
 c105a58:	01d50004 	.word	0x01d50004
 c105a5c:	01d5000c 	.word	0x01d5000c
 c105a60:	00009c40 	.word	0x00009c40
 c105a64:	00061a80 	.word	0x00061a80
 c105a68:	003d0900 	.word	0x003d0900
 c105a6c:	01e84800 	.word	0x01e84800
 c105a70:	01d50008 	.word	0x01d50008

0c105a74 <timer0_open_ms>:
 c105a74:	e1a0c00d 	mov	ip, sp
 c105a78:	e92dd800 	push	{fp, ip, lr, pc}
 c105a7c:	e24cb004 	sub	fp, ip, #4
 c105a80:	e24dd008 	sub	sp, sp, #8
 c105a84:	e50b0010 	str	r0, [fp, #-16]
 c105a88:	e1a03002 	mov	r3, r2
 c105a8c:	e14b11b2 	strh	r1, [fp, #-18]	; 0xffffffee
 c105a90:	e54b3013 	strb	r3, [fp, #-19]	; 0xffffffed
 c105a94:	e59f30dc 	ldr	r3, [pc, #220]	; c105b78 <timer0_open_ms+0x104>
 c105a98:	e59f20d8 	ldr	r2, [pc, #216]	; c105b78 <timer0_open_ms+0x104>
 c105a9c:	e5922000 	ldr	r2, [r2]
 c105aa0:	e3822088 	orr	r2, r2, #136	; 0x88
 c105aa4:	e5832000 	str	r2, [r3]
 c105aa8:	e59f30cc 	ldr	r3, [pc, #204]	; c105b7c <timer0_open_ms+0x108>
 c105aac:	e51b2010 	ldr	r2, [fp, #-16]
 c105ab0:	e5832000 	str	r2, [r3]
 c105ab4:	e59f30c4 	ldr	r3, [pc, #196]	; c105b80 <timer0_open_ms+0x10c>
 c105ab8:	e3a02a02 	mov	r2, #8192	; 0x2000
 c105abc:	e5832000 	str	r2, [r3]
 c105ac0:	e59f20bc 	ldr	r2, [pc, #188]	; c105b84 <timer0_open_ms+0x110>
 c105ac4:	e59f30b8 	ldr	r3, [pc, #184]	; c105b84 <timer0_open_ms+0x110>
 c105ac8:	e5933000 	ldr	r3, [r3]
 c105acc:	e3c33301 	bic	r3, r3, #67108864	; 0x4000000
 c105ad0:	e3c33a02 	bic	r3, r3, #8192	; 0x2000
 c105ad4:	e5823000 	str	r3, [r2]
 c105ad8:	e59f30a8 	ldr	r3, [pc, #168]	; c105b88 <timer0_open_ms+0x114>
 c105adc:	e59f20a4 	ldr	r2, [pc, #164]	; c105b88 <timer0_open_ms+0x114>
 c105ae0:	e5922000 	ldr	r2, [r2]
 c105ae4:	e3c220ff 	bic	r2, r2, #255	; 0xff
 c105ae8:	e38220c7 	orr	r2, r2, #199	; 0xc7
 c105aec:	e5832000 	str	r2, [r3]
 c105af0:	e59f3094 	ldr	r3, [pc, #148]	; c105b8c <timer0_open_ms+0x118>
 c105af4:	e59f2090 	ldr	r2, [pc, #144]	; c105b8c <timer0_open_ms+0x118>
 c105af8:	e5922000 	ldr	r2, [r2]
 c105afc:	e3c2200f 	bic	r2, r2, #15
 c105b00:	e3822004 	orr	r2, r2, #4
 c105b04:	e5832000 	str	r2, [r3]
 c105b08:	e59f1080 	ldr	r1, [pc, #128]	; c105b90 <timer0_open_ms+0x11c>
 c105b0c:	e15b21b2 	ldrh	r2, [fp, #-18]	; 0xffffffee
 c105b10:	e1a03002 	mov	r3, r2
 c105b14:	e1a03103 	lsl	r3, r3, #2
 c105b18:	e0833002 	add	r3, r3, r2
 c105b1c:	e1a03083 	lsl	r3, r3, #1
 c105b20:	e5813000 	str	r3, [r1]
 c105b24:	e59f3068 	ldr	r3, [pc, #104]	; c105b94 <timer0_open_ms+0x120>
 c105b28:	e59f2064 	ldr	r2, [pc, #100]	; c105b94 <timer0_open_ms+0x120>
 c105b2c:	e5922000 	ldr	r2, [r2]
 c105b30:	e3c2100f 	bic	r1, r2, #15
 c105b34:	e55b2013 	ldrb	r2, [fp, #-19]	; 0xffffffed
 c105b38:	e1a02182 	lsl	r2, r2, #3
 c105b3c:	e1812002 	orr	r2, r1, r2
 c105b40:	e3822002 	orr	r2, r2, #2
 c105b44:	e5832000 	str	r2, [r3]
 c105b48:	e59f3044 	ldr	r3, [pc, #68]	; c105b94 <timer0_open_ms+0x120>
 c105b4c:	e59f2040 	ldr	r2, [pc, #64]	; c105b94 <timer0_open_ms+0x120>
 c105b50:	e5922000 	ldr	r2, [r2]
 c105b54:	e3c2100f 	bic	r1, r2, #15
 c105b58:	e55b2013 	ldrb	r2, [fp, #-19]	; 0xffffffed
 c105b5c:	e1a02182 	lsl	r2, r2, #3
 c105b60:	e1812002 	orr	r2, r1, r2
 c105b64:	e3822001 	orr	r2, r2, #1
 c105b68:	e5832000 	str	r2, [r3]
 c105b6c:	e24bd00c 	sub	sp, fp, #12
 c105b70:	e89d6800 	ldm	sp, {fp, sp, lr}
 c105b74:	e12fff1e 	bx	lr
 c105b78:	01d80004 	.word	0x01d80004
 c105b7c:	0c7fff54 	.word	0x0c7fff54
 c105b80:	01e00024 	.word	0x01e00024
 c105b84:	01e0000c 	.word	0x01e0000c
 c105b88:	01d50000 	.word	0x01d50000
 c105b8c:	01d50004 	.word	0x01d50004
 c105b90:	01d5000c 	.word	0x01d5000c
 c105b94:	01d50008 	.word	0x01d50008

0c105b98 <timer0_close>:
 c105b98:	e1a0c00d 	mov	ip, sp
 c105b9c:	e92dd800 	push	{fp, ip, lr, pc}
 c105ba0:	e24cb004 	sub	fp, ip, #4
 c105ba4:	e59f3068 	ldr	r3, [pc, #104]	; c105c14 <timer0_close+0x7c>
 c105ba8:	e3a02000 	mov	r2, #0
 c105bac:	e5832000 	str	r2, [r3]
 c105bb0:	e59f3060 	ldr	r3, [pc, #96]	; c105c18 <timer0_close+0x80>
 c105bb4:	e3a02000 	mov	r2, #0
 c105bb8:	e5832000 	str	r2, [r3]
 c105bbc:	e59f3058 	ldr	r3, [pc, #88]	; c105c1c <timer0_close+0x84>
 c105bc0:	e59f2054 	ldr	r2, [pc, #84]	; c105c1c <timer0_close+0x84>
 c105bc4:	e5922000 	ldr	r2, [r2]
 c105bc8:	e3c2200f 	bic	r2, r2, #15
 c105bcc:	e3822002 	orr	r2, r2, #2
 c105bd0:	e5832000 	str	r2, [r3]
 c105bd4:	e59f3040 	ldr	r3, [pc, #64]	; c105c1c <timer0_close+0x84>
 c105bd8:	e59f203c 	ldr	r2, [pc, #60]	; c105c1c <timer0_close+0x84>
 c105bdc:	e5922000 	ldr	r2, [r2]
 c105be0:	e3c2200f 	bic	r2, r2, #15
 c105be4:	e5832000 	str	r2, [r3]
 c105be8:	e59f3030 	ldr	r3, [pc, #48]	; c105c20 <timer0_close+0x88>
 c105bec:	e59f202c 	ldr	r2, [pc, #44]	; c105c20 <timer0_close+0x88>
 c105bf0:	e5922000 	ldr	r2, [r2]
 c105bf4:	e3822a02 	orr	r2, r2, #8192	; 0x2000
 c105bf8:	e5832000 	str	r2, [r3]
 c105bfc:	e59f3020 	ldr	r3, [pc, #32]	; c105c24 <timer0_close+0x8c>
 c105c00:	e59f2020 	ldr	r2, [pc, #32]	; c105c28 <timer0_close+0x90>
 c105c04:	e5832000 	str	r2, [r3]
 c105c08:	e24bd00c 	sub	sp, fp, #12
 c105c0c:	e89d6800 	ldm	sp, {fp, sp, lr}
 c105c10:	e12fff1e 	bx	lr
 c105c14:	01d5000c 	.word	0x01d5000c
 c105c18:	01d50010 	.word	0x01d50010
 c105c1c:	01d50008 	.word	0x01d50008
 c105c20:	01e0000c 	.word	0x01e0000c
 c105c24:	0c7fff54 	.word	0x0c7fff54
 c105c28:	0c104764 	.word	0x0c104764

0c105c2c <uart0_init>:
 c105c2c:	e1a0c00d 	mov	ip, sp
 c105c30:	e92dd800 	push	{fp, ip, lr, pc}
 c105c34:	e24cb004 	sub	fp, ip, #4
 c105c38:	e3a00008 	mov	r0, #8
 c105c3c:	ebfff67d 	bl	c103638 <power_on>
 c105c40:	e59f306c 	ldr	r3, [pc, #108]	; c105cb4 <uart0_init+0x88>
 c105c44:	e59f2068 	ldr	r2, [pc, #104]	; c105cb4 <uart0_init+0x88>
 c105c48:	e5922000 	ldr	r2, [r2]
 c105c4c:	e3c2203c 	bic	r2, r2, #60	; 0x3c
 c105c50:	e3822028 	orr	r2, r2, #40	; 0x28
 c105c54:	e5832000 	str	r2, [r3]
 c105c58:	e59f3058 	ldr	r3, [pc, #88]	; c105cb8 <uart0_init+0x8c>
 c105c5c:	e59f2054 	ldr	r2, [pc, #84]	; c105cb8 <uart0_init+0x8c>
 c105c60:	e5922000 	ldr	r2, [r2]
 c105c64:	e3822006 	orr	r2, r2, #6
 c105c68:	e5832000 	str	r2, [r3]
 c105c6c:	e59f3048 	ldr	r3, [pc, #72]	; c105cbc <uart0_init+0x90>
 c105c70:	e3a02001 	mov	r2, #1
 c105c74:	e5832000 	str	r2, [r3]
 c105c78:	e59f3040 	ldr	r3, [pc, #64]	; c105cc0 <uart0_init+0x94>
 c105c7c:	e3a02000 	mov	r2, #0
 c105c80:	e5832000 	str	r2, [r3]
 c105c84:	e3a0361d 	mov	r3, #30408704	; 0x1d00000
 c105c88:	e3a02003 	mov	r2, #3
 c105c8c:	e5832000 	str	r2, [r3]
 c105c90:	e59f302c 	ldr	r3, [pc, #44]	; c105cc4 <uart0_init+0x98>
 c105c94:	e3a02022 	mov	r2, #34	; 0x22
 c105c98:	e5832000 	str	r2, [r3]
 c105c9c:	e59f3024 	ldr	r3, [pc, #36]	; c105cc8 <uart0_init+0x9c>
 c105ca0:	e3a02005 	mov	r2, #5
 c105ca4:	e5832000 	str	r2, [r3]
 c105ca8:	e24bd00c 	sub	sp, fp, #12
 c105cac:	e89d6800 	ldm	sp, {fp, sp, lr}
 c105cb0:	e12fff1e 	bx	lr
 c105cb4:	01d20028 	.word	0x01d20028
 c105cb8:	01d20030 	.word	0x01d20030
 c105cbc:	01d00008 	.word	0x01d00008
 c105cc0:	01d0000c 	.word	0x01d0000c
 c105cc4:	01d00028 	.word	0x01d00028
 c105cc8:	01d00004 	.word	0x01d00004

0c105ccc <uart0_putchar>:
 c105ccc:	e1a0c00d 	mov	ip, sp
 c105cd0:	e92dd800 	push	{fp, ip, lr, pc}
 c105cd4:	e24cb004 	sub	fp, ip, #4
 c105cd8:	e24dd008 	sub	sp, sp, #8
 c105cdc:	e1a03000 	mov	r3, r0
 c105ce0:	e54b300d 	strb	r3, [fp, #-13]
 c105ce4:	e1a00000 	nop			; (mov r0, r0)
 c105ce8:	e59f3024 	ldr	r3, [pc, #36]	; c105d14 <uart0_putchar+0x48>
 c105cec:	e5933000 	ldr	r3, [r3]
 c105cf0:	e2033c02 	and	r3, r3, #512	; 0x200
 c105cf4:	e3530000 	cmp	r3, #0
 c105cf8:	1afffffa 	bne	c105ce8 <uart0_putchar+0x1c>
 c105cfc:	e59f3014 	ldr	r3, [pc, #20]	; c105d18 <uart0_putchar+0x4c>
 c105d00:	e55b200d 	ldrb	r2, [fp, #-13]
 c105d04:	e5832000 	str	r2, [r3]
 c105d08:	e24bd00c 	sub	sp, fp, #12
 c105d0c:	e89d6800 	ldm	sp, {fp, sp, lr}
 c105d10:	e12fff1e 	bx	lr
 c105d14:	01d00018 	.word	0x01d00018
 c105d18:	01d00020 	.word	0x01d00020

0c105d1c <uart0_getchar>:
 c105d1c:	e1a0c00d 	mov	ip, sp
 c105d20:	e92dd800 	push	{fp, ip, lr, pc}
 c105d24:	e24cb004 	sub	fp, ip, #4
 c105d28:	e24dd008 	sub	sp, sp, #8
 c105d2c:	e1a00000 	nop			; (mov r0, r0)
 c105d30:	e59f302c 	ldr	r3, [pc, #44]	; c105d64 <uart0_getchar+0x48>
 c105d34:	e5933000 	ldr	r3, [r3]
 c105d38:	e203300f 	and	r3, r3, #15
 c105d3c:	e3530000 	cmp	r3, #0
 c105d40:	0afffffa 	beq	c105d30 <uart0_getchar+0x14>
 c105d44:	e59f301c 	ldr	r3, [pc, #28]	; c105d68 <uart0_getchar+0x4c>
 c105d48:	e5933000 	ldr	r3, [r3]
 c105d4c:	e54b300d 	strb	r3, [fp, #-13]
 c105d50:	e55b300d 	ldrb	r3, [fp, #-13]
 c105d54:	e1a00003 	mov	r0, r3
 c105d58:	e24bd00c 	sub	sp, fp, #12
 c105d5c:	e89d6800 	ldm	sp, {fp, sp, lr}
 c105d60:	e12fff1e 	bx	lr
 c105d64:	01d00018 	.word	0x01d00018
 c105d68:	01d00024 	.word	0x01d00024

0c105d6c <uart0_puts>:
 c105d6c:	e1a0c00d 	mov	ip, sp
 c105d70:	e92dd800 	push	{fp, ip, lr, pc}
 c105d74:	e24cb004 	sub	fp, ip, #4
 c105d78:	e24dd008 	sub	sp, sp, #8
 c105d7c:	e50b0010 	str	r0, [fp, #-16]
 c105d80:	ea000006 	b	c105da0 <uart0_puts+0x34>
 c105d84:	e51b3010 	ldr	r3, [fp, #-16]
 c105d88:	e5d33000 	ldrb	r3, [r3]
 c105d8c:	e51b2010 	ldr	r2, [fp, #-16]
 c105d90:	e2822001 	add	r2, r2, #1
 c105d94:	e50b2010 	str	r2, [fp, #-16]
 c105d98:	e1a00003 	mov	r0, r3
 c105d9c:	ebffffca 	bl	c105ccc <uart0_putchar>
 c105da0:	e51b3010 	ldr	r3, [fp, #-16]
 c105da4:	e5d33000 	ldrb	r3, [r3]
 c105da8:	e3530000 	cmp	r3, #0
 c105dac:	1afffff4 	bne	c105d84 <uart0_puts+0x18>
 c105db0:	e24bd00c 	sub	sp, fp, #12
 c105db4:	e89d6800 	ldm	sp, {fp, sp, lr}
 c105db8:	e12fff1e 	bx	lr

0c105dbc <uart0_putint>:
 c105dbc:	e1a0c00d 	mov	ip, sp
 c105dc0:	e92dd800 	push	{fp, ip, lr, pc}
 c105dc4:	e24cb004 	sub	fp, ip, #4
 c105dc8:	e24dd018 	sub	sp, sp, #24
 c105dcc:	e50b0020 	str	r0, [fp, #-32]	; 0xffffffe0
 c105dd0:	e24b301c 	sub	r3, fp, #28
 c105dd4:	e283300b 	add	r3, r3, #11
 c105dd8:	e50b3010 	str	r3, [fp, #-16]
 c105ddc:	e51b3010 	ldr	r3, [fp, #-16]
 c105de0:	e3a02000 	mov	r2, #0
 c105de4:	e5c32000 	strb	r2, [r3]
 c105de8:	e51b3020 	ldr	r3, [fp, #-32]	; 0xffffffe0
 c105dec:	e3530000 	cmp	r3, #0
 c105df0:	ba00001d 	blt	c105e6c <uart0_putint+0xb0>
 c105df4:	e51b3010 	ldr	r3, [fp, #-16]
 c105df8:	e2433001 	sub	r3, r3, #1
 c105dfc:	e50b3010 	str	r3, [fp, #-16]
 c105e00:	e51b1020 	ldr	r1, [fp, #-32]	; 0xffffffe0
 c105e04:	e59f3100 	ldr	r3, [pc, #256]	; c105f0c <uart0_putint+0x150>
 c105e08:	e0c32391 	smull	r2, r3, r1, r3
 c105e0c:	e1a02143 	asr	r2, r3, #2
 c105e10:	e1a03fc1 	asr	r3, r1, #31
 c105e14:	e0632002 	rsb	r2, r3, r2
 c105e18:	e1a03002 	mov	r3, r2
 c105e1c:	e1a03103 	lsl	r3, r3, #2
 c105e20:	e0833002 	add	r3, r3, r2
 c105e24:	e1a03083 	lsl	r3, r3, #1
 c105e28:	e0632001 	rsb	r2, r3, r1
 c105e2c:	e20230ff 	and	r3, r2, #255	; 0xff
 c105e30:	e2833030 	add	r3, r3, #48	; 0x30
 c105e34:	e20320ff 	and	r2, r3, #255	; 0xff
 c105e38:	e51b3010 	ldr	r3, [fp, #-16]
 c105e3c:	e5c32000 	strb	r2, [r3]
 c105e40:	e51b3020 	ldr	r3, [fp, #-32]	; 0xffffffe0
 c105e44:	e59f20c0 	ldr	r2, [pc, #192]	; c105f0c <uart0_putint+0x150>
 c105e48:	e0c21293 	smull	r1, r2, r3, r2
 c105e4c:	e1a02142 	asr	r2, r2, #2
 c105e50:	e1a03fc3 	asr	r3, r3, #31
 c105e54:	e0633002 	rsb	r3, r3, r2
 c105e58:	e50b3020 	str	r3, [fp, #-32]	; 0xffffffe0
 c105e5c:	e51b3020 	ldr	r3, [fp, #-32]	; 0xffffffe0
 c105e60:	e3530000 	cmp	r3, #0
 c105e64:	1affffe2 	bne	c105df4 <uart0_putint+0x38>
 c105e68:	ea000022 	b	c105ef8 <uart0_putint+0x13c>
 c105e6c:	e51b3010 	ldr	r3, [fp, #-16]
 c105e70:	e2433001 	sub	r3, r3, #1
 c105e74:	e50b3010 	str	r3, [fp, #-16]
 c105e78:	e51b1020 	ldr	r1, [fp, #-32]	; 0xffffffe0
 c105e7c:	e59f3088 	ldr	r3, [pc, #136]	; c105f0c <uart0_putint+0x150>
 c105e80:	e0c32391 	smull	r2, r3, r1, r3
 c105e84:	e1a02143 	asr	r2, r3, #2
 c105e88:	e1a03fc1 	asr	r3, r1, #31
 c105e8c:	e0632002 	rsb	r2, r3, r2
 c105e90:	e1a03002 	mov	r3, r2
 c105e94:	e1a03103 	lsl	r3, r3, #2
 c105e98:	e0833002 	add	r3, r3, r2
 c105e9c:	e1a03083 	lsl	r3, r3, #1
 c105ea0:	e0632001 	rsb	r2, r3, r1
 c105ea4:	e20230ff 	and	r3, r2, #255	; 0xff
 c105ea8:	e2633030 	rsb	r3, r3, #48	; 0x30
 c105eac:	e20320ff 	and	r2, r3, #255	; 0xff
 c105eb0:	e51b3010 	ldr	r3, [fp, #-16]
 c105eb4:	e5c32000 	strb	r2, [r3]
 c105eb8:	e51b3020 	ldr	r3, [fp, #-32]	; 0xffffffe0
 c105ebc:	e59f2048 	ldr	r2, [pc, #72]	; c105f0c <uart0_putint+0x150>
 c105ec0:	e0c21293 	smull	r1, r2, r3, r2
 c105ec4:	e1a02142 	asr	r2, r2, #2
 c105ec8:	e1a03fc3 	asr	r3, r3, #31
 c105ecc:	e0633002 	rsb	r3, r3, r2
 c105ed0:	e50b3020 	str	r3, [fp, #-32]	; 0xffffffe0
 c105ed4:	e51b3020 	ldr	r3, [fp, #-32]	; 0xffffffe0
 c105ed8:	e3530000 	cmp	r3, #0
 c105edc:	1affffe2 	bne	c105e6c <uart0_putint+0xb0>
 c105ee0:	e51b3010 	ldr	r3, [fp, #-16]
 c105ee4:	e2433001 	sub	r3, r3, #1
 c105ee8:	e50b3010 	str	r3, [fp, #-16]
 c105eec:	e51b3010 	ldr	r3, [fp, #-16]
 c105ef0:	e3a0202d 	mov	r2, #45	; 0x2d
 c105ef4:	e5c32000 	strb	r2, [r3]
 c105ef8:	e51b0010 	ldr	r0, [fp, #-16]
 c105efc:	ebffff9a 	bl	c105d6c <uart0_puts>
 c105f00:	e24bd00c 	sub	sp, fp, #12
 c105f04:	e89d6800 	ldm	sp, {fp, sp, lr}
 c105f08:	e12fff1e 	bx	lr
 c105f0c:	66666667 	.word	0x66666667

0c105f10 <uart0_puthex>:
 c105f10:	e1a0c00d 	mov	ip, sp
 c105f14:	e92dd800 	push	{fp, ip, lr, pc}
 c105f18:	e24cb004 	sub	fp, ip, #4
 c105f1c:	e24dd018 	sub	sp, sp, #24
 c105f20:	e50b0020 	str	r0, [fp, #-32]	; 0xffffffe0
 c105f24:	e24b301c 	sub	r3, fp, #28
 c105f28:	e2833008 	add	r3, r3, #8
 c105f2c:	e50b3010 	str	r3, [fp, #-16]
 c105f30:	e51b3010 	ldr	r3, [fp, #-16]
 c105f34:	e3a02000 	mov	r2, #0
 c105f38:	e5c32000 	strb	r2, [r3]
 c105f3c:	e51b3020 	ldr	r3, [fp, #-32]	; 0xffffffe0
 c105f40:	e20330ff 	and	r3, r3, #255	; 0xff
 c105f44:	e203300f 	and	r3, r3, #15
 c105f48:	e54b3011 	strb	r3, [fp, #-17]	; 0xffffffef
 c105f4c:	e55b3011 	ldrb	r3, [fp, #-17]	; 0xffffffef
 c105f50:	e3530009 	cmp	r3, #9
 c105f54:	8a000008 	bhi	c105f7c <uart0_puthex+0x6c>
 c105f58:	e51b3010 	ldr	r3, [fp, #-16]
 c105f5c:	e2433001 	sub	r3, r3, #1
 c105f60:	e50b3010 	str	r3, [fp, #-16]
 c105f64:	e55b3011 	ldrb	r3, [fp, #-17]	; 0xffffffef
 c105f68:	e2833030 	add	r3, r3, #48	; 0x30
 c105f6c:	e20320ff 	and	r2, r3, #255	; 0xff
 c105f70:	e51b3010 	ldr	r3, [fp, #-16]
 c105f74:	e5c32000 	strb	r2, [r3]
 c105f78:	ea000007 	b	c105f9c <uart0_puthex+0x8c>
 c105f7c:	e51b3010 	ldr	r3, [fp, #-16]
 c105f80:	e2433001 	sub	r3, r3, #1
 c105f84:	e50b3010 	str	r3, [fp, #-16]
 c105f88:	e55b3011 	ldrb	r3, [fp, #-17]	; 0xffffffef
 c105f8c:	e2833057 	add	r3, r3, #87	; 0x57
 c105f90:	e20320ff 	and	r2, r3, #255	; 0xff
 c105f94:	e51b3010 	ldr	r3, [fp, #-16]
 c105f98:	e5c32000 	strb	r2, [r3]
 c105f9c:	e51b3020 	ldr	r3, [fp, #-32]	; 0xffffffe0
 c105fa0:	e1a03223 	lsr	r3, r3, #4
 c105fa4:	e50b3020 	str	r3, [fp, #-32]	; 0xffffffe0
 c105fa8:	e51b3020 	ldr	r3, [fp, #-32]	; 0xffffffe0
 c105fac:	e3530000 	cmp	r3, #0
 c105fb0:	1affffe1 	bne	c105f3c <uart0_puthex+0x2c>
 c105fb4:	e51b0010 	ldr	r0, [fp, #-16]
 c105fb8:	ebffff6b 	bl	c105d6c <uart0_puts>
 c105fbc:	e24bd00c 	sub	sp, fp, #12
 c105fc0:	e89d6800 	ldm	sp, {fp, sp, lr}
 c105fc4:	e12fff1e 	bx	lr

0c105fc8 <uart0_gets>:
 c105fc8:	e1a0c00d 	mov	ip, sp
 c105fcc:	e92dd800 	push	{fp, ip, lr, pc}
 c105fd0:	e24cb004 	sub	fp, ip, #4
 c105fd4:	e24dd010 	sub	sp, sp, #16
 c105fd8:	e50b0018 	str	r0, [fp, #-24]	; 0xffffffe8
 c105fdc:	ea000005 	b	c105ff8 <uart0_gets+0x30>
 c105fe0:	e51b3018 	ldr	r3, [fp, #-24]	; 0xffffffe8
 c105fe4:	e55b200d 	ldrb	r2, [fp, #-13]
 c105fe8:	e5c32000 	strb	r2, [r3]
 c105fec:	e51b3018 	ldr	r3, [fp, #-24]	; 0xffffffe8
 c105ff0:	e2833001 	add	r3, r3, #1
 c105ff4:	e50b3018 	str	r3, [fp, #-24]	; 0xffffffe8
 c105ff8:	ebffff47 	bl	c105d1c <uart0_getchar>
 c105ffc:	e1a03000 	mov	r3, r0
 c106000:	e54b300d 	strb	r3, [fp, #-13]
 c106004:	e55b300d 	ldrb	r3, [fp, #-13]
 c106008:	e353000a 	cmp	r3, #10
 c10600c:	1afffff3 	bne	c105fe0 <uart0_gets+0x18>
 c106010:	e51b3018 	ldr	r3, [fp, #-24]	; 0xffffffe8
 c106014:	e3a02000 	mov	r2, #0
 c106018:	e5c32000 	strb	r2, [r3]
 c10601c:	e24bd00c 	sub	sp, fp, #12
 c106020:	e89d6800 	ldm	sp, {fp, sp, lr}
 c106024:	e12fff1e 	bx	lr

0c106028 <uart0_getint>:
 c106028:	e1a0c00d 	mov	ip, sp
 c10602c:	e92dd800 	push	{fp, ip, lr, pc}
 c106030:	e24cb004 	sub	fp, ip, #4
 c106034:	e24dde11 	sub	sp, sp, #272	; 0x110
 c106038:	e24b3f46 	sub	r3, fp, #280	; 0x118
 c10603c:	e50b3010 	str	r3, [fp, #-16]
 c106040:	e3a03000 	mov	r3, #0
 c106044:	e50b3014 	str	r3, [fp, #-20]	; 0xffffffec
 c106048:	e3a03000 	mov	r3, #0
 c10604c:	e54b3015 	strb	r3, [fp, #-21]	; 0xffffffeb
 c106050:	e24b3f46 	sub	r3, fp, #280	; 0x118
 c106054:	e1a00003 	mov	r0, r3
 c106058:	ebffffda 	bl	c105fc8 <uart0_gets>
 c10605c:	e51b3010 	ldr	r3, [fp, #-16]
 c106060:	e5d33000 	ldrb	r3, [r3]
 c106064:	e353002d 	cmp	r3, #45	; 0x2d
 c106068:	1a000014 	bne	c1060c0 <uart0_getint+0x98>
 c10606c:	e3a03001 	mov	r3, #1
 c106070:	e54b3015 	strb	r3, [fp, #-21]	; 0xffffffeb
 c106074:	e51b3010 	ldr	r3, [fp, #-16]
 c106078:	e2833001 	add	r3, r3, #1
 c10607c:	e50b3010 	str	r3, [fp, #-16]
 c106080:	ea00000f 	b	c1060c4 <uart0_getint+0x9c>
 c106084:	e51b2014 	ldr	r2, [fp, #-20]	; 0xffffffec
 c106088:	e1a03002 	mov	r3, r2
 c10608c:	e1a03103 	lsl	r3, r3, #2
 c106090:	e0833002 	add	r3, r3, r2
 c106094:	e1a03083 	lsl	r3, r3, #1
 c106098:	e1a02003 	mov	r2, r3
 c10609c:	e51b3010 	ldr	r3, [fp, #-16]
 c1060a0:	e5d33000 	ldrb	r3, [r3]
 c1060a4:	e2433030 	sub	r3, r3, #48	; 0x30
 c1060a8:	e0823003 	add	r3, r2, r3
 c1060ac:	e50b3014 	str	r3, [fp, #-20]	; 0xffffffec
 c1060b0:	e51b3010 	ldr	r3, [fp, #-16]
 c1060b4:	e2833001 	add	r3, r3, #1
 c1060b8:	e50b3010 	str	r3, [fp, #-16]
 c1060bc:	ea000000 	b	c1060c4 <uart0_getint+0x9c>
 c1060c0:	e1a00000 	nop			; (mov r0, r0)
 c1060c4:	e51b3010 	ldr	r3, [fp, #-16]
 c1060c8:	e5d33000 	ldrb	r3, [r3]
 c1060cc:	e3530000 	cmp	r3, #0
 c1060d0:	1affffeb 	bne	c106084 <uart0_getint+0x5c>
 c1060d4:	e55b3015 	ldrb	r3, [fp, #-21]	; 0xffffffeb
 c1060d8:	e3530000 	cmp	r3, #0
 c1060dc:	0a000002 	beq	c1060ec <uart0_getint+0xc4>
 c1060e0:	e51b3014 	ldr	r3, [fp, #-20]	; 0xffffffec
 c1060e4:	e2633000 	rsb	r3, r3, #0
 c1060e8:	e50b3014 	str	r3, [fp, #-20]	; 0xffffffec
 c1060ec:	e51b3014 	ldr	r3, [fp, #-20]	; 0xffffffec
 c1060f0:	e1a00003 	mov	r0, r3
 c1060f4:	e24bd00c 	sub	sp, fp, #12
 c1060f8:	e89d6800 	ldm	sp, {fp, sp, lr}
 c1060fc:	e12fff1e 	bx	lr

0c106100 <uart0_gethex>:
 c106100:	e1a0c00d 	mov	ip, sp
 c106104:	e92dd800 	push	{fp, ip, lr, pc}
 c106108:	e24cb004 	sub	fp, ip, #4
 c10610c:	e24ddf42 	sub	sp, sp, #264	; 0x108
 c106110:	e24b3f45 	sub	r3, fp, #276	; 0x114
 c106114:	e50b3010 	str	r3, [fp, #-16]
 c106118:	e3a03000 	mov	r3, #0
 c10611c:	e50b3014 	str	r3, [fp, #-20]	; 0xffffffec
 c106120:	e24b3f45 	sub	r3, fp, #276	; 0x114
 c106124:	e1a00003 	mov	r0, r3
 c106128:	ebffffa6 	bl	c105fc8 <uart0_gets>
 c10612c:	ea00002f 	b	c1061f0 <uart0_gethex+0xf0>
 c106130:	e51b3010 	ldr	r3, [fp, #-16]
 c106134:	e5d33000 	ldrb	r3, [r3]
 c106138:	e3530040 	cmp	r3, #64	; 0x40
 c10613c:	9a00000e 	bls	c10617c <uart0_gethex+0x7c>
 c106140:	e51b3010 	ldr	r3, [fp, #-16]
 c106144:	e5d33000 	ldrb	r3, [r3]
 c106148:	e3530046 	cmp	r3, #70	; 0x46
 c10614c:	8a00000a 	bhi	c10617c <uart0_gethex+0x7c>
 c106150:	e51b3014 	ldr	r3, [fp, #-20]	; 0xffffffec
 c106154:	e1a02203 	lsl	r2, r3, #4
 c106158:	e51b3010 	ldr	r3, [fp, #-16]
 c10615c:	e5d33000 	ldrb	r3, [r3]
 c106160:	e0823003 	add	r3, r2, r3
 c106164:	e2433037 	sub	r3, r3, #55	; 0x37
 c106168:	e50b3014 	str	r3, [fp, #-20]	; 0xffffffec
 c10616c:	e51b3010 	ldr	r3, [fp, #-16]
 c106170:	e2833001 	add	r3, r3, #1
 c106174:	e50b3010 	str	r3, [fp, #-16]
 c106178:	ea00001c 	b	c1061f0 <uart0_gethex+0xf0>
 c10617c:	e51b3010 	ldr	r3, [fp, #-16]
 c106180:	e5d33000 	ldrb	r3, [r3]
 c106184:	e3530060 	cmp	r3, #96	; 0x60
 c106188:	9a00000e 	bls	c1061c8 <uart0_gethex+0xc8>
 c10618c:	e51b3010 	ldr	r3, [fp, #-16]
 c106190:	e5d33000 	ldrb	r3, [r3]
 c106194:	e3530066 	cmp	r3, #102	; 0x66
 c106198:	8a00000a 	bhi	c1061c8 <uart0_gethex+0xc8>
 c10619c:	e51b3014 	ldr	r3, [fp, #-20]	; 0xffffffec
 c1061a0:	e1a02203 	lsl	r2, r3, #4
 c1061a4:	e51b3010 	ldr	r3, [fp, #-16]
 c1061a8:	e5d33000 	ldrb	r3, [r3]
 c1061ac:	e0823003 	add	r3, r2, r3
 c1061b0:	e2433057 	sub	r3, r3, #87	; 0x57
 c1061b4:	e50b3014 	str	r3, [fp, #-20]	; 0xffffffec
 c1061b8:	e51b3010 	ldr	r3, [fp, #-16]
 c1061bc:	e2833001 	add	r3, r3, #1
 c1061c0:	e50b3010 	str	r3, [fp, #-16]
 c1061c4:	ea000009 	b	c1061f0 <uart0_gethex+0xf0>
 c1061c8:	e51b3014 	ldr	r3, [fp, #-20]	; 0xffffffec
 c1061cc:	e1a02203 	lsl	r2, r3, #4
 c1061d0:	e51b3010 	ldr	r3, [fp, #-16]
 c1061d4:	e5d33000 	ldrb	r3, [r3]
 c1061d8:	e0823003 	add	r3, r2, r3
 c1061dc:	e2433030 	sub	r3, r3, #48	; 0x30
 c1061e0:	e50b3014 	str	r3, [fp, #-20]	; 0xffffffec
 c1061e4:	e51b3010 	ldr	r3, [fp, #-16]
 c1061e8:	e2833001 	add	r3, r3, #1
 c1061ec:	e50b3010 	str	r3, [fp, #-16]
 c1061f0:	e51b3010 	ldr	r3, [fp, #-16]
 c1061f4:	e5d33000 	ldrb	r3, [r3]
 c1061f8:	e3530000 	cmp	r3, #0
 c1061fc:	1affffcb 	bne	c106130 <uart0_gethex+0x30>
 c106200:	e51b3014 	ldr	r3, [fp, #-20]	; 0xffffffec
 c106204:	e1a00003 	mov	r0, r3
 c106208:	e24bd00c 	sub	sp, fp, #12
 c10620c:	e89d6800 	ldm	sp, {fp, sp, lr}
 c106210:	e12fff1e 	bx	lr

0c106214 <uda1341ts_init>:
 c106214:	e1a0c00d 	mov	ip, sp
 c106218:	e92dd800 	push	{fp, ip, lr, pc}
 c10621c:	e24cb004 	sub	fp, ip, #4
 c106220:	eb0000e6 	bl	c1065c0 <L3_init>
 c106224:	e3a00016 	mov	r0, #22
 c106228:	e3a01000 	mov	r1, #0
 c10622c:	eb000113 	bl	c106680 <L3_putByte>
 c106230:	e3a00060 	mov	r0, #96	; 0x60
 c106234:	e3a01001 	mov	r1, #1
 c106238:	eb000110 	bl	c106680 <L3_putByte>
 c10623c:	e3a00020 	mov	r0, #32
 c106240:	e3a01001 	mov	r1, #1
 c106244:	eb00010d 	bl	c106680 <L3_putByte>
 c106248:	e3a00014 	mov	r0, #20
 c10624c:	e3a01000 	mov	r1, #0
 c106250:	eb00010a 	bl	c106680 <L3_putByte>
 c106254:	e3a000c2 	mov	r0, #194	; 0xc2
 c106258:	e3a01001 	mov	r1, #1
 c10625c:	eb000107 	bl	c106680 <L3_putByte>
 c106260:	e3a000e1 	mov	r0, #225	; 0xe1
 c106264:	e3a01001 	mov	r1, #1
 c106268:	eb000104 	bl	c106680 <L3_putByte>
 c10626c:	e3a0003f 	mov	r0, #63	; 0x3f
 c106270:	eb000070 	bl	c106438 <uda1341ts_setvol>
 c106274:	e3a00001 	mov	r0, #1
 c106278:	eb000019 	bl	c1062e4 <uda1341ts_on>
 c10627c:	e3a00002 	mov	r0, #2
 c106280:	eb000017 	bl	c1062e4 <uda1341ts_on>
 c106284:	e24bd00c 	sub	sp, fp, #12
 c106288:	e89d6800 	ldm	sp, {fp, sp, lr}
 c10628c:	e12fff1e 	bx	lr

0c106290 <uda1341ts_mute>:
 c106290:	e1a0c00d 	mov	ip, sp
 c106294:	e92dd800 	push	{fp, ip, lr, pc}
 c106298:	e24cb004 	sub	fp, ip, #4
 c10629c:	e24dd008 	sub	sp, sp, #8
 c1062a0:	e1a03000 	mov	r3, r0
 c1062a4:	e54b300d 	strb	r3, [fp, #-13]
 c1062a8:	e3a00014 	mov	r0, #20
 c1062ac:	e3a01000 	mov	r1, #0
 c1062b0:	eb0000f2 	bl	c106680 <L3_putByte>
 c1062b4:	e55b300d 	ldrb	r3, [fp, #-13]
 c1062b8:	e3530000 	cmp	r3, #0
 c1062bc:	0a000001 	beq	c1062c8 <uda1341ts_mute+0x38>
 c1062c0:	e3a03084 	mov	r3, #132	; 0x84
 c1062c4:	ea000000 	b	c1062cc <uda1341ts_mute+0x3c>
 c1062c8:	e3a03080 	mov	r3, #128	; 0x80
 c1062cc:	e1a00003 	mov	r0, r3
 c1062d0:	e3a01001 	mov	r1, #1
 c1062d4:	eb0000e9 	bl	c106680 <L3_putByte>
 c1062d8:	e24bd00c 	sub	sp, fp, #12
 c1062dc:	e89d6800 	ldm	sp, {fp, sp, lr}
 c1062e0:	e12fff1e 	bx	lr

0c1062e4 <uda1341ts_on>:
 c1062e4:	e1a0c00d 	mov	ip, sp
 c1062e8:	e92dd800 	push	{fp, ip, lr, pc}
 c1062ec:	e24cb004 	sub	fp, ip, #4
 c1062f0:	e24dd008 	sub	sp, sp, #8
 c1062f4:	e1a03000 	mov	r3, r0
 c1062f8:	e54b300d 	strb	r3, [fp, #-13]
 c1062fc:	e59f3050 	ldr	r3, [pc, #80]	; c106354 <uda1341ts_on+0x70>
 c106300:	e5d32000 	ldrb	r2, [r3]
 c106304:	e55b300d 	ldrb	r3, [fp, #-13]
 c106308:	e1823003 	orr	r3, r2, r3
 c10630c:	e20320ff 	and	r2, r3, #255	; 0xff
 c106310:	e59f303c 	ldr	r3, [pc, #60]	; c106354 <uda1341ts_on+0x70>
 c106314:	e5c32000 	strb	r2, [r3]
 c106318:	e3a00016 	mov	r0, #22
 c10631c:	e3a01000 	mov	r1, #0
 c106320:	eb0000d6 	bl	c106680 <L3_putByte>
 c106324:	e59f3028 	ldr	r3, [pc, #40]	; c106354 <uda1341ts_on+0x70>
 c106328:	e5d33000 	ldrb	r3, [r3]
 c10632c:	e1e03003 	mvn	r3, r3
 c106330:	e203305f 	and	r3, r3, #95	; 0x5f
 c106334:	e1e03003 	mvn	r3, r3
 c106338:	e20330ff 	and	r3, r3, #255	; 0xff
 c10633c:	e1a00003 	mov	r0, r3
 c106340:	e3a01001 	mov	r1, #1
 c106344:	eb0000cd 	bl	c106680 <L3_putByte>
 c106348:	e24bd00c 	sub	sp, fp, #12
 c10634c:	e89d6800 	ldm	sp, {fp, sp, lr}
 c106350:	e12fff1e 	bx	lr
 c106354:	0c11237d 	.word	0x0c11237d

0c106358 <uda1341ts_off>:
 c106358:	e1a0c00d 	mov	ip, sp
 c10635c:	e92dd800 	push	{fp, ip, lr, pc}
 c106360:	e24cb004 	sub	fp, ip, #4
 c106364:	e24dd008 	sub	sp, sp, #8
 c106368:	e1a03000 	mov	r3, r0
 c10636c:	e54b300d 	strb	r3, [fp, #-13]
 c106370:	e55b300d 	ldrb	r3, [fp, #-13]
 c106374:	e1e03003 	mvn	r3, r3
 c106378:	e20320ff 	and	r2, r3, #255	; 0xff
 c10637c:	e59f3054 	ldr	r3, [pc, #84]	; c1063d8 <uda1341ts_off+0x80>
 c106380:	e5d33000 	ldrb	r3, [r3]
 c106384:	e20330ff 	and	r3, r3, #255	; 0xff
 c106388:	e0023003 	and	r3, r2, r3
 c10638c:	e20330ff 	and	r3, r3, #255	; 0xff
 c106390:	e20320ff 	and	r2, r3, #255	; 0xff
 c106394:	e59f303c 	ldr	r3, [pc, #60]	; c1063d8 <uda1341ts_off+0x80>
 c106398:	e5c32000 	strb	r2, [r3]
 c10639c:	e3a00016 	mov	r0, #22
 c1063a0:	e3a01000 	mov	r1, #0
 c1063a4:	eb0000b5 	bl	c106680 <L3_putByte>
 c1063a8:	e59f3028 	ldr	r3, [pc, #40]	; c1063d8 <uda1341ts_off+0x80>
 c1063ac:	e5d33000 	ldrb	r3, [r3]
 c1063b0:	e1e03003 	mvn	r3, r3
 c1063b4:	e203305f 	and	r3, r3, #95	; 0x5f
 c1063b8:	e1e03003 	mvn	r3, r3
 c1063bc:	e20330ff 	and	r3, r3, #255	; 0xff
 c1063c0:	e1a00003 	mov	r0, r3
 c1063c4:	e3a01001 	mov	r1, #1
 c1063c8:	eb0000ac 	bl	c106680 <L3_putByte>
 c1063cc:	e24bd00c 	sub	sp, fp, #12
 c1063d0:	e89d6800 	ldm	sp, {fp, sp, lr}
 c1063d4:	e12fff1e 	bx	lr
 c1063d8:	0c11237d 	.word	0x0c11237d

0c1063dc <uda1341ts_status>:
 c1063dc:	e1a0c00d 	mov	ip, sp
 c1063e0:	e92dd800 	push	{fp, ip, lr, pc}
 c1063e4:	e24cb004 	sub	fp, ip, #4
 c1063e8:	e24dd008 	sub	sp, sp, #8
 c1063ec:	e1a03000 	mov	r3, r0
 c1063f0:	e54b300d 	strb	r3, [fp, #-13]
 c1063f4:	e59f3038 	ldr	r3, [pc, #56]	; c106434 <uda1341ts_status+0x58>
 c1063f8:	e5d32000 	ldrb	r2, [r3]
 c1063fc:	e55b300d 	ldrb	r3, [fp, #-13]
 c106400:	e0023003 	and	r3, r2, r3
 c106404:	e20330ff 	and	r3, r3, #255	; 0xff
 c106408:	e1a02003 	mov	r2, r3
 c10640c:	e55b300d 	ldrb	r3, [fp, #-13]
 c106410:	e3530002 	cmp	r3, #2
 c106414:	13a03000 	movne	r3, #0
 c106418:	03a03001 	moveq	r3, #1
 c10641c:	e1a03352 	asr	r3, r2, r3
 c106420:	e20330ff 	and	r3, r3, #255	; 0xff
 c106424:	e1a00003 	mov	r0, r3
 c106428:	e24bd00c 	sub	sp, fp, #12
 c10642c:	e89d6800 	ldm	sp, {fp, sp, lr}
 c106430:	e12fff1e 	bx	lr
 c106434:	0c11237d 	.word	0x0c11237d

0c106438 <uda1341ts_setvol>:
 c106438:	e1a0c00d 	mov	ip, sp
 c10643c:	e92dd800 	push	{fp, ip, lr, pc}
 c106440:	e24cb004 	sub	fp, ip, #4
 c106444:	e24dd008 	sub	sp, sp, #8
 c106448:	e1a03000 	mov	r3, r0
 c10644c:	e54b300d 	strb	r3, [fp, #-13]
 c106450:	e55b300d 	ldrb	r3, [fp, #-13]
 c106454:	e203303f 	and	r3, r3, #63	; 0x3f
 c106458:	e20320ff 	and	r2, r3, #255	; 0xff
 c10645c:	e59f3034 	ldr	r3, [pc, #52]	; c106498 <uda1341ts_setvol+0x60>
 c106460:	e5c32000 	strb	r2, [r3]
 c106464:	e3a00014 	mov	r0, #20
 c106468:	e3a01000 	mov	r1, #0
 c10646c:	eb000083 	bl	c106680 <L3_putByte>
 c106470:	e59f3020 	ldr	r3, [pc, #32]	; c106498 <uda1341ts_setvol+0x60>
 c106474:	e5d33000 	ldrb	r3, [r3]
 c106478:	e263303f 	rsb	r3, r3, #63	; 0x3f
 c10647c:	e20330ff 	and	r3, r3, #255	; 0xff
 c106480:	e1a00003 	mov	r0, r3
 c106484:	e3a01001 	mov	r1, #1
 c106488:	eb00007c 	bl	c106680 <L3_putByte>
 c10648c:	e24bd00c 	sub	sp, fp, #12
 c106490:	e89d6800 	ldm	sp, {fp, sp, lr}
 c106494:	e12fff1e 	bx	lr
 c106498:	0c11237c 	.word	0x0c11237c

0c10649c <uda1341ts_getvol>:
 c10649c:	e1a0c00d 	mov	ip, sp
 c1064a0:	e92dd800 	push	{fp, ip, lr, pc}
 c1064a4:	e24cb004 	sub	fp, ip, #4
 c1064a8:	e59f3010 	ldr	r3, [pc, #16]	; c1064c0 <uda1341ts_getvol+0x24>
 c1064ac:	e5d33000 	ldrb	r3, [r3]
 c1064b0:	e1a00003 	mov	r0, r3
 c1064b4:	e24bd00c 	sub	sp, fp, #12
 c1064b8:	e89d6800 	ldm	sp, {fp, sp, lr}
 c1064bc:	e12fff1e 	bx	lr
 c1064c0:	0c11237c 	.word	0x0c11237c

0c1064c4 <bdma0_init>:
 c1064c4:	e1a0c00d 	mov	ip, sp
 c1064c8:	e92dd800 	push	{fp, ip, lr, pc}
 c1064cc:	e24cb004 	sub	fp, ip, #4
 c1064d0:	e3a00007 	mov	r0, #7
 c1064d4:	ebfff457 	bl	c103638 <power_on>
 c1064d8:	e3a0377e 	mov	r3, #33030144	; 0x1f80000
 c1064dc:	e3a02000 	mov	r2, #0
 c1064e0:	e5832000 	str	r2, [r3]
 c1064e4:	e59f3028 	ldr	r3, [pc, #40]	; c106514 <bdma0_init+0x50>
 c1064e8:	e3a02000 	mov	r2, #0
 c1064ec:	e5832000 	str	r2, [r3]
 c1064f0:	e59f3020 	ldr	r3, [pc, #32]	; c106518 <bdma0_init+0x54>
 c1064f4:	e3a02000 	mov	r2, #0
 c1064f8:	e5832000 	str	r2, [r3]
 c1064fc:	e59f3018 	ldr	r3, [pc, #24]	; c10651c <bdma0_init+0x58>
 c106500:	e3a02000 	mov	r2, #0
 c106504:	e5832000 	str	r2, [r3]
 c106508:	e24bd00c 	sub	sp, fp, #12
 c10650c:	e89d6800 	ldm	sp, {fp, sp, lr}
 c106510:	e12fff1e 	bx	lr
 c106514:	01f80004 	.word	0x01f80004
 c106518:	01f80008 	.word	0x01f80008
 c10651c:	01f8000c 	.word	0x01f8000c

0c106520 <bdma0_open>:
 c106520:	e1a0c00d 	mov	ip, sp
 c106524:	e92dd800 	push	{fp, ip, lr, pc}
 c106528:	e24cb004 	sub	fp, ip, #4
 c10652c:	e24dd008 	sub	sp, sp, #8
 c106530:	e50b0010 	str	r0, [fp, #-16]
 c106534:	e59f3034 	ldr	r3, [pc, #52]	; c106570 <bdma0_open+0x50>
 c106538:	e51b2010 	ldr	r2, [fp, #-16]
 c10653c:	e5832000 	str	r2, [r3]
 c106540:	e59f302c 	ldr	r3, [pc, #44]	; c106574 <bdma0_open+0x54>
 c106544:	e3a02802 	mov	r2, #131072	; 0x20000
 c106548:	e5832000 	str	r2, [r3]
 c10654c:	e59f2024 	ldr	r2, [pc, #36]	; c106578 <bdma0_open+0x58>
 c106550:	e59f3020 	ldr	r3, [pc, #32]	; c106578 <bdma0_open+0x58>
 c106554:	e5933000 	ldr	r3, [r3]
 c106558:	e3c33301 	bic	r3, r3, #67108864	; 0x4000000
 c10655c:	e3c33802 	bic	r3, r3, #131072	; 0x20000
 c106560:	e5823000 	str	r3, [r2]
 c106564:	e24bd00c 	sub	sp, fp, #12
 c106568:	e89d6800 	ldm	sp, {fp, sp, lr}
 c10656c:	e12fff1e 	bx	lr
 c106570:	0c7fff64 	.word	0x0c7fff64
 c106574:	01e00024 	.word	0x01e00024
 c106578:	01e0000c 	.word	0x01e0000c

0c10657c <bdma0_close>:
 c10657c:	e1a0c00d 	mov	ip, sp
 c106580:	e92dd800 	push	{fp, ip, lr, pc}
 c106584:	e24cb004 	sub	fp, ip, #4
 c106588:	e59f3024 	ldr	r3, [pc, #36]	; c1065b4 <bdma0_close+0x38>
 c10658c:	e59f2020 	ldr	r2, [pc, #32]	; c1065b4 <bdma0_close+0x38>
 c106590:	e5922000 	ldr	r2, [r2]
 c106594:	e3822802 	orr	r2, r2, #131072	; 0x20000
 c106598:	e5832000 	str	r2, [r3]
 c10659c:	e59f3014 	ldr	r3, [pc, #20]	; c1065b8 <bdma0_close+0x3c>
 c1065a0:	e59f2014 	ldr	r2, [pc, #20]	; c1065bc <bdma0_close+0x40>
 c1065a4:	e5832000 	str	r2, [r3]
 c1065a8:	e24bd00c 	sub	sp, fp, #12
 c1065ac:	e89d6800 	ldm	sp, {fp, sp, lr}
 c1065b0:	e12fff1e 	bx	lr
 c1065b4:	01e0000c 	.word	0x01e0000c
 c1065b8:	0c7fff60 	.word	0x0c7fff60
 c1065bc:	0c104884 	.word	0x0c104884

0c1065c0 <L3_init>:
 c1065c0:	e1a0c00d 	mov	ip, sp
 c1065c4:	e92dd800 	push	{fp, ip, lr, pc}
 c1065c8:	e24cb004 	sub	fp, ip, #4
 c1065cc:	e24dd008 	sub	sp, sp, #8
 c1065d0:	e3a00002 	mov	r0, #2
 c1065d4:	eb0000dc 	bl	c10694c <led_status>
 c1065d8:	e1a03000 	mov	r3, r0
 c1065dc:	e3530000 	cmp	r3, #0
 c1065e0:	13a03000 	movne	r3, #0
 c1065e4:	03a03001 	moveq	r3, #1
 c1065e8:	e54b300d 	strb	r3, [fp, #-13]
 c1065ec:	e3a00001 	mov	r0, #1
 c1065f0:	eb0000d5 	bl	c10694c <led_status>
 c1065f4:	e1a03000 	mov	r3, r0
 c1065f8:	e3530000 	cmp	r3, #0
 c1065fc:	13a03000 	movne	r3, #0
 c106600:	03a03001 	moveq	r3, #1
 c106604:	e54b300e 	strb	r3, [fp, #-14]
 c106608:	e59f3060 	ldr	r3, [pc, #96]	; c106670 <L3_init+0xb0>
 c10660c:	e59f205c 	ldr	r2, [pc, #92]	; c106670 <L3_init+0xb0>
 c106610:	e5922000 	ldr	r2, [r2]
 c106614:	e3822d12 	orr	r2, r2, #1152	; 0x480
 c106618:	e5832000 	str	r2, [r3]
 c10661c:	e59f3050 	ldr	r3, [pc, #80]	; c106674 <L3_init+0xb4>
 c106620:	e59f204c 	ldr	r2, [pc, #76]	; c106674 <L3_init+0xb4>
 c106624:	e5922000 	ldr	r2, [r2]
 c106628:	e3c22c02 	bic	r2, r2, #512	; 0x200
 c10662c:	e5832000 	str	r2, [r3]
 c106630:	e59f3040 	ldr	r3, [pc, #64]	; c106678 <L3_init+0xb8>
 c106634:	e59f203c 	ldr	r2, [pc, #60]	; c106678 <L3_init+0xb8>
 c106638:	e5922000 	ldr	r2, [r2]
 c10663c:	e3c22030 	bic	r2, r2, #48	; 0x30
 c106640:	e5832000 	str	r2, [r3]
 c106644:	e59f3030 	ldr	r3, [pc, #48]	; c10667c <L3_init+0xbc>
 c106648:	e55b200d 	ldrb	r2, [fp, #-13]
 c10664c:	e1a01502 	lsl	r1, r2, #10
 c106650:	e55b200e 	ldrb	r2, [fp, #-14]
 c106654:	e1a02482 	lsl	r2, r2, #9
 c106658:	e1812002 	orr	r2, r1, r2
 c10665c:	e3822030 	orr	r2, r2, #48	; 0x30
 c106660:	e5832000 	str	r2, [r3]
 c106664:	e24bd00c 	sub	sp, fp, #12
 c106668:	e89d6800 	ldm	sp, {fp, sp, lr}
 c10666c:	e12fff1e 	bx	lr
 c106670:	01d80004 	.word	0x01d80004
 c106674:	01d20000 	.word	0x01d20000
 c106678:	01d20008 	.word	0x01d20008
 c10667c:	01d2000c 	.word	0x01d2000c

0c106680 <L3_putByte>:
 c106680:	e1a0c00d 	mov	ip, sp
 c106684:	e92dd800 	push	{fp, ip, lr, pc}
 c106688:	e24cb004 	sub	fp, ip, #4
 c10668c:	e24dd010 	sub	sp, sp, #16
 c106690:	e1a02000 	mov	r2, r0
 c106694:	e1a03001 	mov	r3, r1
 c106698:	e54b2015 	strb	r2, [fp, #-21]	; 0xffffffeb
 c10669c:	e54b3016 	strb	r3, [fp, #-22]	; 0xffffffea
 c1066a0:	e3a00002 	mov	r0, #2
 c1066a4:	eb0000a8 	bl	c10694c <led_status>
 c1066a8:	e1a03000 	mov	r3, r0
 c1066ac:	e3530000 	cmp	r3, #0
 c1066b0:	13a03000 	movne	r3, #0
 c1066b4:	03a03001 	moveq	r3, #1
 c1066b8:	e54b3011 	strb	r3, [fp, #-17]	; 0xffffffef
 c1066bc:	e3a00001 	mov	r0, #1
 c1066c0:	eb0000a1 	bl	c10694c <led_status>
 c1066c4:	e1a03000 	mov	r3, r0
 c1066c8:	e3530000 	cmp	r3, #0
 c1066cc:	13a03000 	movne	r3, #0
 c1066d0:	03a03001 	moveq	r3, #1
 c1066d4:	e54b3012 	strb	r3, [fp, #-18]	; 0xffffffee
 c1066d8:	e59f314c 	ldr	r3, [pc, #332]	; c10682c <L3_putByte+0x1ac>
 c1066dc:	e55b2011 	ldrb	r2, [fp, #-17]	; 0xffffffef
 c1066e0:	e1a01502 	lsl	r1, r2, #10
 c1066e4:	e55b2012 	ldrb	r2, [fp, #-18]	; 0xffffffee
 c1066e8:	e1a02482 	lsl	r2, r2, #9
 c1066ec:	e1812002 	orr	r2, r1, r2
 c1066f0:	e3821020 	orr	r1, r2, #32
 c1066f4:	e55b2016 	ldrb	r2, [fp, #-22]	; 0xffffffea
 c1066f8:	e1a02202 	lsl	r2, r2, #4
 c1066fc:	e1812002 	orr	r2, r1, r2
 c106700:	e5832000 	str	r2, [r3]
 c106704:	e3a03000 	mov	r3, #0
 c106708:	e54b300e 	strb	r3, [fp, #-14]
 c10670c:	ea000002 	b	c10671c <L3_putByte+0x9c>
 c106710:	e55b300e 	ldrb	r3, [fp, #-14]
 c106714:	e2833001 	add	r3, r3, #1
 c106718:	e54b300e 	strb	r3, [fp, #-14]
 c10671c:	e15b30de 	ldrsb	r3, [fp, #-14]
 c106720:	e3530003 	cmp	r3, #3
 c106724:	dafffff9 	ble	c106710 <L3_putByte+0x90>
 c106728:	e3a03000 	mov	r3, #0
 c10672c:	e54b300d 	strb	r3, [fp, #-13]
 c106730:	ea00002f 	b	c1067f4 <L3_putByte+0x174>
 c106734:	e59f30f0 	ldr	r3, [pc, #240]	; c10682c <L3_putByte+0x1ac>
 c106738:	e55b2011 	ldrb	r2, [fp, #-17]	; 0xffffffef
 c10673c:	e1a01502 	lsl	r1, r2, #10
 c106740:	e55b2012 	ldrb	r2, [fp, #-18]	; 0xffffffee
 c106744:	e1a02482 	lsl	r2, r2, #9
 c106748:	e1811002 	orr	r1, r1, r2
 c10674c:	e55b2016 	ldrb	r2, [fp, #-22]	; 0xffffffea
 c106750:	e1a02202 	lsl	r2, r2, #4
 c106754:	e1812002 	orr	r2, r1, r2
 c106758:	e5832000 	str	r2, [r3]
 c10675c:	e59f30cc 	ldr	r3, [pc, #204]	; c106830 <L3_putByte+0x1b0>
 c106760:	e55b1015 	ldrb	r1, [fp, #-21]	; 0xffffffeb
 c106764:	e55b200d 	ldrb	r2, [fp, #-13]
 c106768:	e1a02251 	asr	r2, r1, r2
 c10676c:	e1a02482 	lsl	r2, r2, #9
 c106770:	e5832000 	str	r2, [r3]
 c106774:	e3a03000 	mov	r3, #0
 c106778:	e54b300f 	strb	r3, [fp, #-15]
 c10677c:	ea000002 	b	c10678c <L3_putByte+0x10c>
 c106780:	e55b300f 	ldrb	r3, [fp, #-15]
 c106784:	e2833001 	add	r3, r3, #1
 c106788:	e54b300f 	strb	r3, [fp, #-15]
 c10678c:	e15b30df 	ldrsb	r3, [fp, #-15]
 c106790:	e3530003 	cmp	r3, #3
 c106794:	dafffff9 	ble	c106780 <L3_putByte+0x100>
 c106798:	e59f308c 	ldr	r3, [pc, #140]	; c10682c <L3_putByte+0x1ac>
 c10679c:	e55b2011 	ldrb	r2, [fp, #-17]	; 0xffffffef
 c1067a0:	e1a01502 	lsl	r1, r2, #10
 c1067a4:	e55b2012 	ldrb	r2, [fp, #-18]	; 0xffffffee
 c1067a8:	e1a02482 	lsl	r2, r2, #9
 c1067ac:	e1812002 	orr	r2, r1, r2
 c1067b0:	e3821020 	orr	r1, r2, #32
 c1067b4:	e55b2016 	ldrb	r2, [fp, #-22]	; 0xffffffea
 c1067b8:	e1a02202 	lsl	r2, r2, #4
 c1067bc:	e1812002 	orr	r2, r1, r2
 c1067c0:	e5832000 	str	r2, [r3]
 c1067c4:	e3a03000 	mov	r3, #0
 c1067c8:	e54b3010 	strb	r3, [fp, #-16]
 c1067cc:	ea000002 	b	c1067dc <L3_putByte+0x15c>
 c1067d0:	e55b3010 	ldrb	r3, [fp, #-16]
 c1067d4:	e2833001 	add	r3, r3, #1
 c1067d8:	e54b3010 	strb	r3, [fp, #-16]
 c1067dc:	e15b31d0 	ldrsb	r3, [fp, #-16]
 c1067e0:	e3530003 	cmp	r3, #3
 c1067e4:	dafffff9 	ble	c1067d0 <L3_putByte+0x150>
 c1067e8:	e55b300d 	ldrb	r3, [fp, #-13]
 c1067ec:	e2833001 	add	r3, r3, #1
 c1067f0:	e54b300d 	strb	r3, [fp, #-13]
 c1067f4:	e55b300d 	ldrb	r3, [fp, #-13]
 c1067f8:	e3530007 	cmp	r3, #7
 c1067fc:	9affffcc 	bls	c106734 <L3_putByte+0xb4>
 c106800:	e59f3024 	ldr	r3, [pc, #36]	; c10682c <L3_putByte+0x1ac>
 c106804:	e55b2011 	ldrb	r2, [fp, #-17]	; 0xffffffef
 c106808:	e1a01502 	lsl	r1, r2, #10
 c10680c:	e55b2012 	ldrb	r2, [fp, #-18]	; 0xffffffee
 c106810:	e1a02482 	lsl	r2, r2, #9
 c106814:	e1812002 	orr	r2, r1, r2
 c106818:	e3822030 	orr	r2, r2, #48	; 0x30
 c10681c:	e5832000 	str	r2, [r3]
 c106820:	e24bd00c 	sub	sp, fp, #12
 c106824:	e89d6800 	ldm	sp, {fp, sp, lr}
 c106828:	e12fff1e 	bx	lr
 c10682c:	01d2000c 	.word	0x01d2000c
 c106830:	01d20004 	.word	0x01d20004

0c106834 <leds_init>:
 c106834:	e1a0c00d 	mov	ip, sp
 c106838:	e92dd800 	push	{fp, ip, lr, pc}
 c10683c:	e24cb004 	sub	fp, ip, #4
 c106840:	e3a0000a 	mov	r0, #10
 c106844:	ebfff37b 	bl	c103638 <power_on>
 c106848:	e59f3028 	ldr	r3, [pc, #40]	; c106878 <leds_init+0x44>
 c10684c:	e59f2024 	ldr	r2, [pc, #36]	; c106878 <leds_init+0x44>
 c106850:	e5922000 	ldr	r2, [r2]
 c106854:	e3c22c06 	bic	r2, r2, #1536	; 0x600
 c106858:	e5832000 	str	r2, [r3]
 c10685c:	e3a00002 	mov	r0, #2
 c106860:	eb000017 	bl	c1068c4 <led_off>
 c106864:	e3a00001 	mov	r0, #1
 c106868:	eb000015 	bl	c1068c4 <led_off>
 c10686c:	e24bd00c 	sub	sp, fp, #12
 c106870:	e89d6800 	ldm	sp, {fp, sp, lr}
 c106874:	e12fff1e 	bx	lr
 c106878:	01d20008 	.word	0x01d20008

0c10687c <led_on>:
 c10687c:	e1a0c00d 	mov	ip, sp
 c106880:	e92dd800 	push	{fp, ip, lr, pc}
 c106884:	e24cb004 	sub	fp, ip, #4
 c106888:	e24dd008 	sub	sp, sp, #8
 c10688c:	e1a03000 	mov	r3, r0
 c106890:	e54b300d 	strb	r3, [fp, #-13]
 c106894:	e59f3024 	ldr	r3, [pc, #36]	; c1068c0 <led_on+0x44>
 c106898:	e59f2020 	ldr	r2, [pc, #32]	; c1068c0 <led_on+0x44>
 c10689c:	e5921000 	ldr	r1, [r2]
 c1068a0:	e55b200d 	ldrb	r2, [fp, #-13]
 c1068a4:	e1a02482 	lsl	r2, r2, #9
 c1068a8:	e1e02002 	mvn	r2, r2
 c1068ac:	e0012002 	and	r2, r1, r2
 c1068b0:	e5832000 	str	r2, [r3]
 c1068b4:	e24bd00c 	sub	sp, fp, #12
 c1068b8:	e89d6800 	ldm	sp, {fp, sp, lr}
 c1068bc:	e12fff1e 	bx	lr
 c1068c0:	01d2000c 	.word	0x01d2000c

0c1068c4 <led_off>:
 c1068c4:	e1a0c00d 	mov	ip, sp
 c1068c8:	e92dd800 	push	{fp, ip, lr, pc}
 c1068cc:	e24cb004 	sub	fp, ip, #4
 c1068d0:	e24dd008 	sub	sp, sp, #8
 c1068d4:	e1a03000 	mov	r3, r0
 c1068d8:	e54b300d 	strb	r3, [fp, #-13]
 c1068dc:	e59f3020 	ldr	r3, [pc, #32]	; c106904 <led_off+0x40>
 c1068e0:	e59f201c 	ldr	r2, [pc, #28]	; c106904 <led_off+0x40>
 c1068e4:	e5921000 	ldr	r1, [r2]
 c1068e8:	e55b200d 	ldrb	r2, [fp, #-13]
 c1068ec:	e1a02482 	lsl	r2, r2, #9
 c1068f0:	e1812002 	orr	r2, r1, r2
 c1068f4:	e5832000 	str	r2, [r3]
 c1068f8:	e24bd00c 	sub	sp, fp, #12
 c1068fc:	e89d6800 	ldm	sp, {fp, sp, lr}
 c106900:	e12fff1e 	bx	lr
 c106904:	01d2000c 	.word	0x01d2000c

0c106908 <led_toggle>:
 c106908:	e1a0c00d 	mov	ip, sp
 c10690c:	e92dd800 	push	{fp, ip, lr, pc}
 c106910:	e24cb004 	sub	fp, ip, #4
 c106914:	e24dd008 	sub	sp, sp, #8
 c106918:	e1a03000 	mov	r3, r0
 c10691c:	e54b300d 	strb	r3, [fp, #-13]
 c106920:	e59f3020 	ldr	r3, [pc, #32]	; c106948 <led_toggle+0x40>
 c106924:	e59f201c 	ldr	r2, [pc, #28]	; c106948 <led_toggle+0x40>
 c106928:	e5921000 	ldr	r1, [r2]
 c10692c:	e55b200d 	ldrb	r2, [fp, #-13]
 c106930:	e1a02482 	lsl	r2, r2, #9
 c106934:	e0212002 	eor	r2, r1, r2
 c106938:	e5832000 	str	r2, [r3]
 c10693c:	e24bd00c 	sub	sp, fp, #12
 c106940:	e89d6800 	ldm	sp, {fp, sp, lr}
 c106944:	e12fff1e 	bx	lr
 c106948:	01d2000c 	.word	0x01d2000c

0c10694c <led_status>:
 c10694c:	e1a0c00d 	mov	ip, sp
 c106950:	e92dd800 	push	{fp, ip, lr, pc}
 c106954:	e24cb004 	sub	fp, ip, #4
 c106958:	e24dd008 	sub	sp, sp, #8
 c10695c:	e1a03000 	mov	r3, r0
 c106960:	e54b300d 	strb	r3, [fp, #-13]
 c106964:	e59f302c 	ldr	r3, [pc, #44]	; c106998 <led_status+0x4c>
 c106968:	e5932000 	ldr	r2, [r3]
 c10696c:	e55b300d 	ldrb	r3, [fp, #-13]
 c106970:	e1a03483 	lsl	r3, r3, #9
 c106974:	e0023003 	and	r3, r2, r3
 c106978:	e3530000 	cmp	r3, #0
 c10697c:	13a03000 	movne	r3, #0
 c106980:	03a03001 	moveq	r3, #1
 c106984:	e20330ff 	and	r3, r3, #255	; 0xff
 c106988:	e1a00003 	mov	r0, r3
 c10698c:	e24bd00c 	sub	sp, fp, #12
 c106990:	e89d6800 	ldm	sp, {fp, sp, lr}
 c106994:	e12fff1e 	bx	lr
 c106998:	01d2000c 	.word	0x01d2000c

0c10699c <__aeabi_uidiv>:
 c10699c:	e2512001 	subs	r2, r1, #1
 c1069a0:	012fff1e 	bxeq	lr
 c1069a4:	3a000036 	bcc	c106a84 <__aeabi_uidiv+0xe8>
 c1069a8:	e1500001 	cmp	r0, r1
 c1069ac:	9a000022 	bls	c106a3c <__aeabi_uidiv+0xa0>
 c1069b0:	e1110002 	tst	r1, r2
 c1069b4:	0a000023 	beq	c106a48 <__aeabi_uidiv+0xac>
 c1069b8:	e311020e 	tst	r1, #-536870912	; 0xe0000000
 c1069bc:	01a01181 	lsleq	r1, r1, #3
 c1069c0:	03a03008 	moveq	r3, #8
 c1069c4:	13a03001 	movne	r3, #1
 c1069c8:	e3510201 	cmp	r1, #268435456	; 0x10000000
 c1069cc:	31510000 	cmpcc	r1, r0
 c1069d0:	31a01201 	lslcc	r1, r1, #4
 c1069d4:	31a03203 	lslcc	r3, r3, #4
 c1069d8:	3afffffa 	bcc	c1069c8 <__aeabi_uidiv+0x2c>
 c1069dc:	e3510102 	cmp	r1, #-2147483648	; 0x80000000
 c1069e0:	31510000 	cmpcc	r1, r0
 c1069e4:	31a01081 	lslcc	r1, r1, #1
 c1069e8:	31a03083 	lslcc	r3, r3, #1
 c1069ec:	3afffffa 	bcc	c1069dc <__aeabi_uidiv+0x40>
 c1069f0:	e3a02000 	mov	r2, #0
 c1069f4:	e1500001 	cmp	r0, r1
 c1069f8:	20400001 	subcs	r0, r0, r1
 c1069fc:	21822003 	orrcs	r2, r2, r3
 c106a00:	e15000a1 	cmp	r0, r1, lsr #1
 c106a04:	204000a1 	subcs	r0, r0, r1, lsr #1
 c106a08:	218220a3 	orrcs	r2, r2, r3, lsr #1
 c106a0c:	e1500121 	cmp	r0, r1, lsr #2
 c106a10:	20400121 	subcs	r0, r0, r1, lsr #2
 c106a14:	21822123 	orrcs	r2, r2, r3, lsr #2
 c106a18:	e15001a1 	cmp	r0, r1, lsr #3
 c106a1c:	204001a1 	subcs	r0, r0, r1, lsr #3
 c106a20:	218221a3 	orrcs	r2, r2, r3, lsr #3
 c106a24:	e3500000 	cmp	r0, #0
 c106a28:	11b03223 	lsrsne	r3, r3, #4
 c106a2c:	11a01221 	lsrne	r1, r1, #4
 c106a30:	1affffef 	bne	c1069f4 <__aeabi_uidiv+0x58>
 c106a34:	e1a00002 	mov	r0, r2
 c106a38:	e12fff1e 	bx	lr
 c106a3c:	03a00001 	moveq	r0, #1
 c106a40:	13a00000 	movne	r0, #0
 c106a44:	e12fff1e 	bx	lr
 c106a48:	e3510801 	cmp	r1, #65536	; 0x10000
 c106a4c:	21a01821 	lsrcs	r1, r1, #16
 c106a50:	23a02010 	movcs	r2, #16
 c106a54:	33a02000 	movcc	r2, #0
 c106a58:	e3510c01 	cmp	r1, #256	; 0x100
 c106a5c:	21a01421 	lsrcs	r1, r1, #8
 c106a60:	22822008 	addcs	r2, r2, #8
 c106a64:	e3510010 	cmp	r1, #16
 c106a68:	21a01221 	lsrcs	r1, r1, #4
 c106a6c:	22822004 	addcs	r2, r2, #4
 c106a70:	e3510004 	cmp	r1, #4
 c106a74:	82822003 	addhi	r2, r2, #3
 c106a78:	908220a1 	addls	r2, r2, r1, lsr #1
 c106a7c:	e1a00230 	lsr	r0, r0, r2
 c106a80:	e12fff1e 	bx	lr
 c106a84:	e3500000 	cmp	r0, #0
 c106a88:	13e00000 	mvnne	r0, #0
 c106a8c:	ea000007 	b	c106ab0 <__aeabi_idiv0>

0c106a90 <__aeabi_uidivmod>:
 c106a90:	e3510000 	cmp	r1, #0
 c106a94:	0afffffa 	beq	c106a84 <__aeabi_uidiv+0xe8>
 c106a98:	e92d4003 	push	{r0, r1, lr}
 c106a9c:	ebffffbe 	bl	c10699c <__aeabi_uidiv>
 c106aa0:	e8bd4006 	pop	{r1, r2, lr}
 c106aa4:	e0030092 	mul	r3, r2, r0
 c106aa8:	e0411003 	sub	r1, r1, r3
 c106aac:	e12fff1e 	bx	lr

0c106ab0 <__aeabi_idiv0>:
 c106ab0:	e12fff1e 	bx	lr

0c106ab4 <__aeabi_uldivmod>:
 c106ab4:	e3530000 	cmp	r3, #0
 c106ab8:	03520000 	cmpeq	r2, #0
 c106abc:	1a000004 	bne	c106ad4 <__aeabi_uldivmod+0x20>
 c106ac0:	e3510000 	cmp	r1, #0
 c106ac4:	03500000 	cmpeq	r0, #0
 c106ac8:	13e01000 	mvnne	r1, #0
 c106acc:	13e00000 	mvnne	r0, #0
 c106ad0:	eafffff6 	b	c106ab0 <__aeabi_idiv0>
 c106ad4:	e24dd008 	sub	sp, sp, #8
 c106ad8:	e92d6000 	push	{sp, lr}
 c106adc:	eb000013 	bl	c106b30 <__gnu_uldivmod_helper>
 c106ae0:	e59de004 	ldr	lr, [sp, #4]
 c106ae4:	e28dd008 	add	sp, sp, #8
 c106ae8:	e8bd000c 	pop	{r2, r3}
 c106aec:	e12fff1e 	bx	lr

0c106af0 <__gnu_ldivmod_helper>:
 c106af0:	e92d40f8 	push	{r3, r4, r5, r6, r7, lr}
 c106af4:	e1a04002 	mov	r4, r2
 c106af8:	e1a07003 	mov	r7, r3
 c106afc:	e1a05000 	mov	r5, r0
 c106b00:	e1a06001 	mov	r6, r1
 c106b04:	eb000019 	bl	c106b70 <__divdi3>
 c106b08:	e0070790 	mul	r7, r0, r7
 c106b0c:	e0832490 	umull	r2, r3, r0, r4
 c106b10:	e0247491 	mla	r4, r1, r4, r7
 c106b14:	e0843003 	add	r3, r4, r3
 c106b18:	e0555002 	subs	r5, r5, r2
 c106b1c:	e0c66003 	sbc	r6, r6, r3
 c106b20:	e59d3018 	ldr	r3, [sp, #24]
 c106b24:	e8830060 	stm	r3, {r5, r6}
 c106b28:	e8bd40f8 	pop	{r3, r4, r5, r6, r7, lr}
 c106b2c:	e12fff1e 	bx	lr

0c106b30 <__gnu_uldivmod_helper>:
 c106b30:	e92d40f8 	push	{r3, r4, r5, r6, r7, lr}
 c106b34:	e1a04002 	mov	r4, r2
 c106b38:	e1a07003 	mov	r7, r3
 c106b3c:	e1a05000 	mov	r5, r0
 c106b40:	e1a06001 	mov	r6, r1
 c106b44:	eb000133 	bl	c107018 <__udivdi3>
 c106b48:	e0070790 	mul	r7, r0, r7
 c106b4c:	e0832490 	umull	r2, r3, r0, r4
 c106b50:	e0247491 	mla	r4, r1, r4, r7
 c106b54:	e0843003 	add	r3, r4, r3
 c106b58:	e0555002 	subs	r5, r5, r2
 c106b5c:	e0c66003 	sbc	r6, r6, r3
 c106b60:	e59d3018 	ldr	r3, [sp, #24]
 c106b64:	e8830060 	stm	r3, {r5, r6}
 c106b68:	e8bd40f8 	pop	{r3, r4, r5, r6, r7, lr}
 c106b6c:	e12fff1e 	bx	lr

0c106b70 <__divdi3>:
 c106b70:	e92d4ff0 	push	{r4, r5, r6, r7, r8, r9, sl, fp, lr}
 c106b74:	e3510000 	cmp	r1, #0
 c106b78:	e24dd014 	sub	sp, sp, #20
 c106b7c:	e1a0c003 	mov	ip, r3
 c106b80:	a3a07000 	movge	r7, #0
 c106b84:	ba000094 	blt	c106ddc <__divdi3+0x26c>
 c106b88:	e35c0000 	cmp	ip, #0
 c106b8c:	ba00008e 	blt	c106dcc <__divdi3+0x25c>
 c106b90:	e253a000 	subs	sl, r3, #0
 c106b94:	e1a0b000 	mov	fp, r0
 c106b98:	e1a08001 	mov	r8, r1
 c106b9c:	e1a09002 	mov	r9, r2
 c106ba0:	e1a04002 	mov	r4, r2
 c106ba4:	e1a05000 	mov	r5, r0
 c106ba8:	e1a06001 	mov	r6, r1
 c106bac:	1a00003e 	bne	c106cac <__divdi3+0x13c>
 c106bb0:	e1520001 	cmp	r2, r1
 c106bb4:	9a00004c 	bls	c106cec <__divdi3+0x17c>
 c106bb8:	e1a00002 	mov	r0, r2
 c106bbc:	eb000222 	bl	c10744c <__clzsi2>
 c106bc0:	e3500000 	cmp	r0, #0
 c106bc4:	12603020 	rsbne	r3, r0, #32
 c106bc8:	11a0333b 	lsrne	r3, fp, r3
 c106bcc:	11a04019 	lslne	r4, r9, r0
 c106bd0:	11836018 	orrne	r6, r3, r8, lsl r0
 c106bd4:	e1a09824 	lsr	r9, r4, #16
 c106bd8:	11a0501b 	lslne	r5, fp, r0
 c106bdc:	e1a01009 	mov	r1, r9
 c106be0:	e1a00006 	mov	r0, r6
 c106be4:	ebffff6c 	bl	c10699c <__aeabi_uidiv>
 c106be8:	e1a01009 	mov	r1, r9
 c106bec:	e1a0a000 	mov	sl, r0
 c106bf0:	e1a00006 	mov	r0, r6
 c106bf4:	ebffffa5 	bl	c106a90 <__aeabi_uidivmod>
 c106bf8:	e1a08804 	lsl	r8, r4, #16
 c106bfc:	e1a08828 	lsr	r8, r8, #16
 c106c00:	e0030a98 	mul	r3, r8, sl
 c106c04:	e1a0b825 	lsr	fp, r5, #16
 c106c08:	e18bb801 	orr	fp, fp, r1, lsl #16
 c106c0c:	e153000b 	cmp	r3, fp
 c106c10:	9a000005 	bls	c106c2c <__divdi3+0xbc>
 c106c14:	e09bb004 	adds	fp, fp, r4
 c106c18:	e24aa001 	sub	sl, sl, #1
 c106c1c:	2a000002 	bcs	c106c2c <__divdi3+0xbc>
 c106c20:	e153000b 	cmp	r3, fp
 c106c24:	824aa001 	subhi	sl, sl, #1
 c106c28:	808bb004 	addhi	fp, fp, r4
 c106c2c:	e063b00b 	rsb	fp, r3, fp
 c106c30:	e1a01009 	mov	r1, r9
 c106c34:	e1a0000b 	mov	r0, fp
 c106c38:	ebffff57 	bl	c10699c <__aeabi_uidiv>
 c106c3c:	e1a01009 	mov	r1, r9
 c106c40:	e1a06000 	mov	r6, r0
 c106c44:	e1a0000b 	mov	r0, fp
 c106c48:	ebffff90 	bl	c106a90 <__aeabi_uidivmod>
 c106c4c:	e0080896 	mul	r8, r6, r8
 c106c50:	e1a00805 	lsl	r0, r5, #16
 c106c54:	e1a05820 	lsr	r5, r0, #16
 c106c58:	e1855801 	orr	r5, r5, r1, lsl #16
 c106c5c:	e1580005 	cmp	r8, r5
 c106c60:	9a000004 	bls	c106c78 <__divdi3+0x108>
 c106c64:	e0955004 	adds	r5, r5, r4
 c106c68:	e2466001 	sub	r6, r6, #1
 c106c6c:	2a000001 	bcs	c106c78 <__divdi3+0x108>
 c106c70:	e1580005 	cmp	r8, r5
 c106c74:	82466001 	subhi	r6, r6, #1
 c106c78:	e186680a 	orr	r6, r6, sl, lsl #16
 c106c7c:	e3a09000 	mov	r9, #0
 c106c80:	e3570000 	cmp	r7, #0
 c106c84:	e1a03006 	mov	r3, r6
 c106c88:	e1a04009 	mov	r4, r9
 c106c8c:	0a000001 	beq	c106c98 <__divdi3+0x128>
 c106c90:	e2733000 	rsbs	r3, r3, #0
 c106c94:	e2e44000 	rsc	r4, r4, #0
 c106c98:	e1a00003 	mov	r0, r3
 c106c9c:	e1a01004 	mov	r1, r4
 c106ca0:	e28dd014 	add	sp, sp, #20
 c106ca4:	e8bd4ff0 	pop	{r4, r5, r6, r7, r8, r9, sl, fp, lr}
 c106ca8:	e12fff1e 	bx	lr
 c106cac:	e15a0001 	cmp	sl, r1
 c106cb0:	83a09000 	movhi	r9, #0
 c106cb4:	81a06009 	movhi	r6, r9
 c106cb8:	8afffff0 	bhi	c106c80 <__divdi3+0x110>
 c106cbc:	e1a00003 	mov	r0, r3
 c106cc0:	eb0001e1 	bl	c10744c <__clzsi2>
 c106cc4:	e2504000 	subs	r4, r0, #0
 c106cc8:	1a00007a 	bne	c106eb8 <__divdi3+0x348>
 c106ccc:	e15a0008 	cmp	sl, r8
 c106cd0:	2159000b 	cmpcs	r9, fp
 c106cd4:	83a09000 	movhi	r9, #0
 c106cd8:	93a09001 	movls	r9, #1
 c106cdc:	93a06001 	movls	r6, #1
 c106ce0:	91a09004 	movls	r9, r4
 c106ce4:	81a06009 	movhi	r6, r9
 c106ce8:	eaffffe4 	b	c106c80 <__divdi3+0x110>
 c106cec:	e3520000 	cmp	r2, #0
 c106cf0:	1a000003 	bne	c106d04 <__divdi3+0x194>
 c106cf4:	e3a00001 	mov	r0, #1
 c106cf8:	e1a01002 	mov	r1, r2
 c106cfc:	ebffff26 	bl	c10699c <__aeabi_uidiv>
 c106d00:	e1a04000 	mov	r4, r0
 c106d04:	e1a00004 	mov	r0, r4
 c106d08:	eb0001cf 	bl	c10744c <__clzsi2>
 c106d0c:	e2503000 	subs	r3, r0, #0
 c106d10:	1a000035 	bne	c106dec <__divdi3+0x27c>
 c106d14:	e3a01001 	mov	r1, #1
 c106d18:	e1a09804 	lsl	r9, r4, #16
 c106d1c:	e58d1008 	str	r1, [sp, #8]
 c106d20:	e0646006 	rsb	r6, r4, r6
 c106d24:	e1a08824 	lsr	r8, r4, #16
 c106d28:	e1a09829 	lsr	r9, r9, #16
 c106d2c:	e1a01008 	mov	r1, r8
 c106d30:	e1a00006 	mov	r0, r6
 c106d34:	ebffff18 	bl	c10699c <__aeabi_uidiv>
 c106d38:	e1a01008 	mov	r1, r8
 c106d3c:	e1a0a000 	mov	sl, r0
 c106d40:	e1a00006 	mov	r0, r6
 c106d44:	ebffff51 	bl	c106a90 <__aeabi_uidivmod>
 c106d48:	e0030a99 	mul	r3, r9, sl
 c106d4c:	e1a0c825 	lsr	ip, r5, #16
 c106d50:	e18cb801 	orr	fp, ip, r1, lsl #16
 c106d54:	e153000b 	cmp	r3, fp
 c106d58:	9a000005 	bls	c106d74 <__divdi3+0x204>
 c106d5c:	e09bb004 	adds	fp, fp, r4
 c106d60:	e24aa001 	sub	sl, sl, #1
 c106d64:	2a000002 	bcs	c106d74 <__divdi3+0x204>
 c106d68:	e153000b 	cmp	r3, fp
 c106d6c:	824aa001 	subhi	sl, sl, #1
 c106d70:	808bb004 	addhi	fp, fp, r4
 c106d74:	e063b00b 	rsb	fp, r3, fp
 c106d78:	e1a01008 	mov	r1, r8
 c106d7c:	e1a0000b 	mov	r0, fp
 c106d80:	ebffff05 	bl	c10699c <__aeabi_uidiv>
 c106d84:	e1a01008 	mov	r1, r8
 c106d88:	e1a06000 	mov	r6, r0
 c106d8c:	e1a0000b 	mov	r0, fp
 c106d90:	ebffff3e 	bl	c106a90 <__aeabi_uidivmod>
 c106d94:	e0090996 	mul	r9, r6, r9
 c106d98:	e1a00805 	lsl	r0, r5, #16
 c106d9c:	e1a05820 	lsr	r5, r0, #16
 c106da0:	e1855801 	orr	r5, r5, r1, lsl #16
 c106da4:	e1590005 	cmp	r9, r5
 c106da8:	9a000004 	bls	c106dc0 <__divdi3+0x250>
 c106dac:	e0955004 	adds	r5, r5, r4
 c106db0:	e2466001 	sub	r6, r6, #1
 c106db4:	2a000001 	bcs	c106dc0 <__divdi3+0x250>
 c106db8:	e1590005 	cmp	r9, r5
 c106dbc:	82466001 	subhi	r6, r6, #1
 c106dc0:	e186680a 	orr	r6, r6, sl, lsl #16
 c106dc4:	e59d9008 	ldr	r9, [sp, #8]
 c106dc8:	eaffffac 	b	c106c80 <__divdi3+0x110>
 c106dcc:	e1e07007 	mvn	r7, r7
 c106dd0:	e2722000 	rsbs	r2, r2, #0
 c106dd4:	e2e33000 	rsc	r3, r3, #0
 c106dd8:	eaffff6c 	b	c106b90 <__divdi3+0x20>
 c106ddc:	e2700000 	rsbs	r0, r0, #0
 c106de0:	e2e11000 	rsc	r1, r1, #0
 c106de4:	e3e07000 	mvn	r7, #0
 c106de8:	eaffff66 	b	c106b88 <__divdi3+0x18>
 c106dec:	e2638020 	rsb	r8, r3, #32
 c106df0:	e1a0b835 	lsr	fp, r5, r8
 c106df4:	e1a04314 	lsl	r4, r4, r3
 c106df8:	e1a0a836 	lsr	sl, r6, r8
 c106dfc:	e18be316 	orr	lr, fp, r6, lsl r3
 c106e00:	e1a08824 	lsr	r8, r4, #16
 c106e04:	e1a0c804 	lsl	ip, r4, #16
 c106e08:	e1a01008 	mov	r1, r8
 c106e0c:	e1a0000a 	mov	r0, sl
 c106e10:	e1a0982c 	lsr	r9, ip, #16
 c106e14:	e1a05315 	lsl	r5, r5, r3
 c106e18:	e58de008 	str	lr, [sp, #8]
 c106e1c:	ebfffede 	bl	c10699c <__aeabi_uidiv>
 c106e20:	e1a01008 	mov	r1, r8
 c106e24:	e1a0b000 	mov	fp, r0
 c106e28:	e1a0000a 	mov	r0, sl
 c106e2c:	ebffff17 	bl	c106a90 <__aeabi_uidivmod>
 c106e30:	e0030b99 	mul	r3, r9, fp
 c106e34:	e59d2008 	ldr	r2, [sp, #8]
 c106e38:	e1a06822 	lsr	r6, r2, #16
 c106e3c:	e1866801 	orr	r6, r6, r1, lsl #16
 c106e40:	e1530006 	cmp	r3, r6
 c106e44:	9a000002 	bls	c106e54 <__divdi3+0x2e4>
 c106e48:	e0966004 	adds	r6, r6, r4
 c106e4c:	e24bb001 	sub	fp, fp, #1
 c106e50:	3a00006c 	bcc	c107008 <__divdi3+0x498>
 c106e54:	e0636006 	rsb	r6, r3, r6
 c106e58:	e1a01008 	mov	r1, r8
 c106e5c:	e1a00006 	mov	r0, r6
 c106e60:	ebfffecd 	bl	c10699c <__aeabi_uidiv>
 c106e64:	e1a01008 	mov	r1, r8
 c106e68:	e1a0a000 	mov	sl, r0
 c106e6c:	e1a00006 	mov	r0, r6
 c106e70:	ebffff06 	bl	c106a90 <__aeabi_uidivmod>
 c106e74:	e0030a99 	mul	r3, r9, sl
 c106e78:	e59d2008 	ldr	r2, [sp, #8]
 c106e7c:	e1a06802 	lsl	r6, r2, #16
 c106e80:	e1a00826 	lsr	r0, r6, #16
 c106e84:	e1806801 	orr	r6, r0, r1, lsl #16
 c106e88:	e1530006 	cmp	r3, r6
 c106e8c:	9a000005 	bls	c106ea8 <__divdi3+0x338>
 c106e90:	e0966004 	adds	r6, r6, r4
 c106e94:	e24aa001 	sub	sl, sl, #1
 c106e98:	2a000002 	bcs	c106ea8 <__divdi3+0x338>
 c106e9c:	e1530006 	cmp	r3, r6
 c106ea0:	824aa001 	subhi	sl, sl, #1
 c106ea4:	80866004 	addhi	r6, r6, r4
 c106ea8:	e0636006 	rsb	r6, r3, r6
 c106eac:	e18a380b 	orr	r3, sl, fp, lsl #16
 c106eb0:	e58d3008 	str	r3, [sp, #8]
 c106eb4:	eaffff9c 	b	c106d2c <__divdi3+0x1bc>
 c106eb8:	e2641020 	rsb	r1, r4, #32
 c106ebc:	e1a00139 	lsr	r0, r9, r1
 c106ec0:	e1a0213b 	lsr	r2, fp, r1
 c106ec4:	e180a41a 	orr	sl, r0, sl, lsl r4
 c106ec8:	e1a06138 	lsr	r6, r8, r1
 c106ecc:	e1828418 	orr	r8, r2, r8, lsl r4
 c106ed0:	e1a0380a 	lsl	r3, sl, #16
 c106ed4:	e1a0b82a 	lsr	fp, sl, #16
 c106ed8:	e1a0e823 	lsr	lr, r3, #16
 c106edc:	e1a0100b 	mov	r1, fp
 c106ee0:	e1a00006 	mov	r0, r6
 c106ee4:	e58d8008 	str	r8, [sp, #8]
 c106ee8:	e58de00c 	str	lr, [sp, #12]
 c106eec:	ebfffeaa 	bl	c10699c <__aeabi_uidiv>
 c106ef0:	e1a0100b 	mov	r1, fp
 c106ef4:	e1a08000 	mov	r8, r0
 c106ef8:	e1a00006 	mov	r0, r6
 c106efc:	ebfffee3 	bl	c106a90 <__aeabi_uidivmod>
 c106f00:	e59dc00c 	ldr	ip, [sp, #12]
 c106f04:	e002089c 	mul	r2, ip, r8
 c106f08:	e59d3008 	ldr	r3, [sp, #8]
 c106f0c:	e1a06823 	lsr	r6, r3, #16
 c106f10:	e1861801 	orr	r1, r6, r1, lsl #16
 c106f14:	e1520001 	cmp	r2, r1
 c106f18:	e1a03419 	lsl	r3, r9, r4
 c106f1c:	9a000002 	bls	c106f2c <__divdi3+0x3bc>
 c106f20:	e091100a 	adds	r1, r1, sl
 c106f24:	e2488001 	sub	r8, r8, #1
 c106f28:	3a000032 	bcc	c106ff8 <__divdi3+0x488>
 c106f2c:	e0629001 	rsb	r9, r2, r1
 c106f30:	e1a00009 	mov	r0, r9
 c106f34:	e1a0100b 	mov	r1, fp
 c106f38:	e58d3004 	str	r3, [sp, #4]
 c106f3c:	ebfffe96 	bl	c10699c <__aeabi_uidiv>
 c106f40:	e1a0100b 	mov	r1, fp
 c106f44:	e1a06000 	mov	r6, r0
 c106f48:	e1a00009 	mov	r0, r9
 c106f4c:	ebfffecf 	bl	c106a90 <__aeabi_uidivmod>
 c106f50:	e59d000c 	ldr	r0, [sp, #12]
 c106f54:	e0020690 	mul	r2, r0, r6
 c106f58:	e59d3008 	ldr	r3, [sp, #8]
 c106f5c:	e1a0c803 	lsl	ip, r3, #16
 c106f60:	e1a0982c 	lsr	r9, ip, #16
 c106f64:	e1890801 	orr	r0, r9, r1, lsl #16
 c106f68:	e1520000 	cmp	r2, r0
 c106f6c:	e59d3004 	ldr	r3, [sp, #4]
 c106f70:	9a000002 	bls	c106f80 <__divdi3+0x410>
 c106f74:	e090000a 	adds	r0, r0, sl
 c106f78:	e2466001 	sub	r6, r6, #1
 c106f7c:	3a000019 	bcc	c106fe8 <__divdi3+0x478>
 c106f80:	e062e000 	rsb	lr, r2, r0
 c106f84:	e1866808 	orr	r6, r6, r8, lsl #16
 c106f88:	e1a02826 	lsr	r2, r6, #16
 c106f8c:	e1a01823 	lsr	r1, r3, #16
 c106f90:	e1c6c802 	bic	ip, r6, r2, lsl #16
 c106f94:	e1c39801 	bic	r9, r3, r1, lsl #16
 c106f98:	e003099c 	mul	r3, ip, r9
 c106f9c:	e0090992 	mul	r9, r2, r9
 c106fa0:	e00c0c91 	mul	ip, r1, ip
 c106fa4:	e0010192 	mul	r1, r2, r1
 c106fa8:	e099c00c 	adds	ip, r9, ip
 c106fac:	22811801 	addcs	r1, r1, #65536	; 0x10000
 c106fb0:	e093380c 	adds	r3, r3, ip, lsl #16
 c106fb4:	e0a1182c 	adc	r1, r1, ip, lsr #16
 c106fb8:	e15e0001 	cmp	lr, r1
 c106fbc:	3a000006 	bcc	c106fdc <__divdi3+0x46c>
 c106fc0:	13a02000 	movne	r2, #0
 c106fc4:	03a02001 	moveq	r2, #1
 c106fc8:	e1530415 	cmp	r3, r5, lsl r4
 c106fcc:	93a09000 	movls	r9, #0
 c106fd0:	82029001 	andhi	r9, r2, #1
 c106fd4:	e3590000 	cmp	r9, #0
 c106fd8:	0affff28 	beq	c106c80 <__divdi3+0x110>
 c106fdc:	e2466001 	sub	r6, r6, #1
 c106fe0:	e3a09000 	mov	r9, #0
 c106fe4:	eaffff25 	b	c106c80 <__divdi3+0x110>
 c106fe8:	e1520000 	cmp	r2, r0
 c106fec:	82466001 	subhi	r6, r6, #1
 c106ff0:	8080000a 	addhi	r0, r0, sl
 c106ff4:	eaffffe1 	b	c106f80 <__divdi3+0x410>
 c106ff8:	e1520001 	cmp	r2, r1
 c106ffc:	82488001 	subhi	r8, r8, #1
 c107000:	8081100a 	addhi	r1, r1, sl
 c107004:	eaffffc8 	b	c106f2c <__divdi3+0x3bc>
 c107008:	e1530006 	cmp	r3, r6
 c10700c:	824bb001 	subhi	fp, fp, #1
 c107010:	80866004 	addhi	r6, r6, r4
 c107014:	eaffff8e 	b	c106e54 <__divdi3+0x2e4>

0c107018 <__udivdi3>:
 c107018:	e92d4ff0 	push	{r4, r5, r6, r7, r8, r9, sl, fp, lr}
 c10701c:	e2538000 	subs	r8, r3, #0
 c107020:	e24dd00c 	sub	sp, sp, #12
 c107024:	e1a05000 	mov	r5, r0
 c107028:	e1a04001 	mov	r4, r1
 c10702c:	e1a06002 	mov	r6, r2
 c107030:	e1a0a002 	mov	sl, r2
 c107034:	e1a0b000 	mov	fp, r0
 c107038:	e1a07001 	mov	r7, r1
 c10703c:	1a000037 	bne	c107120 <__udivdi3+0x108>
 c107040:	e1520001 	cmp	r2, r1
 c107044:	9a000045 	bls	c107160 <__udivdi3+0x148>
 c107048:	e1a00002 	mov	r0, r2
 c10704c:	eb0000fe 	bl	c10744c <__clzsi2>
 c107050:	e3500000 	cmp	r0, #0
 c107054:	12603020 	rsbne	r3, r0, #32
 c107058:	11a03335 	lsrne	r3, r5, r3
 c10705c:	11a0a016 	lslne	sl, r6, r0
 c107060:	11837014 	orrne	r7, r3, r4, lsl r0
 c107064:	e1a0482a 	lsr	r4, sl, #16
 c107068:	11a0b015 	lslne	fp, r5, r0
 c10706c:	e1a01004 	mov	r1, r4
 c107070:	e1a00007 	mov	r0, r7
 c107074:	ebfffe48 	bl	c10699c <__aeabi_uidiv>
 c107078:	e1a01004 	mov	r1, r4
 c10707c:	e1a08000 	mov	r8, r0
 c107080:	e1a00007 	mov	r0, r7
 c107084:	ebfffe81 	bl	c106a90 <__aeabi_uidivmod>
 c107088:	e1a0680a 	lsl	r6, sl, #16
 c10708c:	e1a06826 	lsr	r6, r6, #16
 c107090:	e0030896 	mul	r3, r6, r8
 c107094:	e1a0782b 	lsr	r7, fp, #16
 c107098:	e1877801 	orr	r7, r7, r1, lsl #16
 c10709c:	e1530007 	cmp	r3, r7
 c1070a0:	9a000005 	bls	c1070bc <__udivdi3+0xa4>
 c1070a4:	e097700a 	adds	r7, r7, sl
 c1070a8:	e2488001 	sub	r8, r8, #1
 c1070ac:	2a000002 	bcs	c1070bc <__udivdi3+0xa4>
 c1070b0:	e1530007 	cmp	r3, r7
 c1070b4:	82488001 	subhi	r8, r8, #1
 c1070b8:	8087700a 	addhi	r7, r7, sl
 c1070bc:	e0637007 	rsb	r7, r3, r7
 c1070c0:	e1a01004 	mov	r1, r4
 c1070c4:	e1a00007 	mov	r0, r7
 c1070c8:	ebfffe33 	bl	c10699c <__aeabi_uidiv>
 c1070cc:	e1a01004 	mov	r1, r4
 c1070d0:	e1a05000 	mov	r5, r0
 c1070d4:	e1a00007 	mov	r0, r7
 c1070d8:	ebfffe6c 	bl	c106a90 <__aeabi_uidivmod>
 c1070dc:	e0060695 	mul	r6, r5, r6
 c1070e0:	e1a0080b 	lsl	r0, fp, #16
 c1070e4:	e1a0b820 	lsr	fp, r0, #16
 c1070e8:	e18bb801 	orr	fp, fp, r1, lsl #16
 c1070ec:	e156000b 	cmp	r6, fp
 c1070f0:	9a000004 	bls	c107108 <__udivdi3+0xf0>
 c1070f4:	e09bb00a 	adds	fp, fp, sl
 c1070f8:	e2455001 	sub	r5, r5, #1
 c1070fc:	2a000001 	bcs	c107108 <__udivdi3+0xf0>
 c107100:	e156000b 	cmp	r6, fp
 c107104:	82455001 	subhi	r5, r5, #1
 c107108:	e1858808 	orr	r8, r5, r8, lsl #16
 c10710c:	e3a01000 	mov	r1, #0
 c107110:	e1a00008 	mov	r0, r8
 c107114:	e28dd00c 	add	sp, sp, #12
 c107118:	e8bd4ff0 	pop	{r4, r5, r6, r7, r8, r9, sl, fp, lr}
 c10711c:	e12fff1e 	bx	lr
 c107120:	e1580001 	cmp	r8, r1
 c107124:	83a01000 	movhi	r1, #0
 c107128:	81a08001 	movhi	r8, r1
 c10712c:	8afffff7 	bhi	c107110 <__udivdi3+0xf8>
 c107130:	e1a00008 	mov	r0, r8
 c107134:	eb0000c4 	bl	c10744c <__clzsi2>
 c107138:	e2507000 	subs	r7, r0, #0
 c10713c:	1a00003e 	bne	c10723c <__udivdi3+0x224>
 c107140:	e1580004 	cmp	r8, r4
 c107144:	21560005 	cmpcs	r6, r5
 c107148:	83a01000 	movhi	r1, #0
 c10714c:	93a01001 	movls	r1, #1
 c107150:	93a08001 	movls	r8, #1
 c107154:	91a01007 	movls	r1, r7
 c107158:	81a08001 	movhi	r8, r1
 c10715c:	eaffffeb 	b	c107110 <__udivdi3+0xf8>
 c107160:	e3520000 	cmp	r2, #0
 c107164:	1a000003 	bne	c107178 <__udivdi3+0x160>
 c107168:	e3a00001 	mov	r0, #1
 c10716c:	e1a01002 	mov	r1, r2
 c107170:	ebfffe09 	bl	c10699c <__aeabi_uidiv>
 c107174:	e1a0a000 	mov	sl, r0
 c107178:	e1a0000a 	mov	r0, sl
 c10717c:	eb0000b2 	bl	c10744c <__clzsi2>
 c107180:	e2503000 	subs	r3, r0, #0
 c107184:	1a000075 	bne	c107360 <__udivdi3+0x348>
 c107188:	e1a0180a 	lsl	r1, sl, #16
 c10718c:	e06a4004 	rsb	r4, sl, r4
 c107190:	e1a0982a 	lsr	r9, sl, #16
 c107194:	e1a06821 	lsr	r6, r1, #16
 c107198:	e3a07001 	mov	r7, #1
 c10719c:	e1a01009 	mov	r1, r9
 c1071a0:	e1a00004 	mov	r0, r4
 c1071a4:	ebfffdfc 	bl	c10699c <__aeabi_uidiv>
 c1071a8:	e1a01009 	mov	r1, r9
 c1071ac:	e1a05000 	mov	r5, r0
 c1071b0:	e1a00004 	mov	r0, r4
 c1071b4:	ebfffe35 	bl	c106a90 <__aeabi_uidivmod>
 c1071b8:	e0030596 	mul	r3, r6, r5
 c1071bc:	e1a0282b 	lsr	r2, fp, #16
 c1071c0:	e1824801 	orr	r4, r2, r1, lsl #16
 c1071c4:	e1530004 	cmp	r3, r4
 c1071c8:	9a000005 	bls	c1071e4 <__udivdi3+0x1cc>
 c1071cc:	e094400a 	adds	r4, r4, sl
 c1071d0:	e2455001 	sub	r5, r5, #1
 c1071d4:	2a000002 	bcs	c1071e4 <__udivdi3+0x1cc>
 c1071d8:	e1530004 	cmp	r3, r4
 c1071dc:	82455001 	subhi	r5, r5, #1
 c1071e0:	8084400a 	addhi	r4, r4, sl
 c1071e4:	e0634004 	rsb	r4, r3, r4
 c1071e8:	e1a01009 	mov	r1, r9
 c1071ec:	e1a00004 	mov	r0, r4
 c1071f0:	ebfffde9 	bl	c10699c <__aeabi_uidiv>
 c1071f4:	e1a01009 	mov	r1, r9
 c1071f8:	e1a08000 	mov	r8, r0
 c1071fc:	e1a00004 	mov	r0, r4
 c107200:	ebfffe22 	bl	c106a90 <__aeabi_uidivmod>
 c107204:	e0060698 	mul	r6, r8, r6
 c107208:	e1a0b80b 	lsl	fp, fp, #16
 c10720c:	e1a0382b 	lsr	r3, fp, #16
 c107210:	e183b801 	orr	fp, r3, r1, lsl #16
 c107214:	e156000b 	cmp	r6, fp
 c107218:	9a000004 	bls	c107230 <__udivdi3+0x218>
 c10721c:	e09bb00a 	adds	fp, fp, sl
 c107220:	e2488001 	sub	r8, r8, #1
 c107224:	2a000001 	bcs	c107230 <__udivdi3+0x218>
 c107228:	e156000b 	cmp	r6, fp
 c10722c:	82488001 	subhi	r8, r8, #1
 c107230:	e1888805 	orr	r8, r8, r5, lsl #16
 c107234:	e1a01007 	mov	r1, r7
 c107238:	eaffffb4 	b	c107110 <__udivdi3+0xf8>
 c10723c:	e267a020 	rsb	sl, r7, #32
 c107240:	e1a01a36 	lsr	r1, r6, sl
 c107244:	e1a02a35 	lsr	r2, r5, sl
 c107248:	e1818718 	orr	r8, r1, r8, lsl r7
 c10724c:	e1a0ba34 	lsr	fp, r4, sl
 c107250:	e1829714 	orr	r9, r2, r4, lsl r7
 c107254:	e1a0a828 	lsr	sl, r8, #16
 c107258:	e1a0e808 	lsl	lr, r8, #16
 c10725c:	e1a0100a 	mov	r1, sl
 c107260:	e1a0000b 	mov	r0, fp
 c107264:	e1a0482e 	lsr	r4, lr, #16
 c107268:	e58d9004 	str	r9, [sp, #4]
 c10726c:	ebfffdca 	bl	c10699c <__aeabi_uidiv>
 c107270:	e1a0100a 	mov	r1, sl
 c107274:	e1a09000 	mov	r9, r0
 c107278:	e1a0000b 	mov	r0, fp
 c10727c:	ebfffe03 	bl	c106a90 <__aeabi_uidivmod>
 c107280:	e0020994 	mul	r2, r4, r9
 c107284:	e59d0004 	ldr	r0, [sp, #4]
 c107288:	e1a0c820 	lsr	ip, r0, #16
 c10728c:	e18cb801 	orr	fp, ip, r1, lsl #16
 c107290:	e152000b 	cmp	r2, fp
 c107294:	e1a03716 	lsl	r3, r6, r7
 c107298:	9a000002 	bls	c1072a8 <__udivdi3+0x290>
 c10729c:	e09bb008 	adds	fp, fp, r8
 c1072a0:	e2499001 	sub	r9, r9, #1
 c1072a4:	3a000060 	bcc	c10742c <__udivdi3+0x414>
 c1072a8:	e062b00b 	rsb	fp, r2, fp
 c1072ac:	e1a0100a 	mov	r1, sl
 c1072b0:	e1a0000b 	mov	r0, fp
 c1072b4:	e58d3000 	str	r3, [sp]
 c1072b8:	ebfffdb7 	bl	c10699c <__aeabi_uidiv>
 c1072bc:	e1a0100a 	mov	r1, sl
 c1072c0:	e1a06000 	mov	r6, r0
 c1072c4:	e1a0000b 	mov	r0, fp
 c1072c8:	ebfffdf0 	bl	c106a90 <__aeabi_uidivmod>
 c1072cc:	e0040496 	mul	r4, r6, r4
 c1072d0:	e59d0004 	ldr	r0, [sp, #4]
 c1072d4:	e1a0c800 	lsl	ip, r0, #16
 c1072d8:	e1a0382c 	lsr	r3, ip, #16
 c1072dc:	e1832801 	orr	r2, r3, r1, lsl #16
 c1072e0:	e1540002 	cmp	r4, r2
 c1072e4:	e59d3000 	ldr	r3, [sp]
 c1072e8:	9a000002 	bls	c1072f8 <__udivdi3+0x2e0>
 c1072ec:	e0922008 	adds	r2, r2, r8
 c1072f0:	e2466001 	sub	r6, r6, #1
 c1072f4:	3a000048 	bcc	c10741c <__udivdi3+0x404>
 c1072f8:	e0644002 	rsb	r4, r4, r2
 c1072fc:	e1868809 	orr	r8, r6, r9, lsl #16
 c107300:	e1a02828 	lsr	r2, r8, #16
 c107304:	e1a0e823 	lsr	lr, r3, #16
 c107308:	e1c80802 	bic	r0, r8, r2, lsl #16
 c10730c:	e1c3680e 	bic	r6, r3, lr, lsl #16
 c107310:	e0030690 	mul	r3, r0, r6
 c107314:	e0060692 	mul	r6, r2, r6
 c107318:	e000009e 	mul	r0, lr, r0
 c10731c:	e00e0e92 	mul	lr, r2, lr
 c107320:	e0960000 	adds	r0, r6, r0
 c107324:	228ee801 	addcs	lr, lr, #65536	; 0x10000
 c107328:	e0933800 	adds	r3, r3, r0, lsl #16
 c10732c:	e0aee820 	adc	lr, lr, r0, lsr #16
 c107330:	e154000e 	cmp	r4, lr
 c107334:	3a000006 	bcc	c107354 <__udivdi3+0x33c>
 c107338:	13a02000 	movne	r2, #0
 c10733c:	03a02001 	moveq	r2, #1
 c107340:	e1530715 	cmp	r3, r5, lsl r7
 c107344:	93a01000 	movls	r1, #0
 c107348:	82021001 	andhi	r1, r2, #1
 c10734c:	e3510000 	cmp	r1, #0
 c107350:	0affff6e 	beq	c107110 <__udivdi3+0xf8>
 c107354:	e2488001 	sub	r8, r8, #1
 c107358:	e3a01000 	mov	r1, #0
 c10735c:	eaffff6b 	b	c107110 <__udivdi3+0xf8>
 c107360:	e2639020 	rsb	r9, r3, #32
 c107364:	e1a0a31a 	lsl	sl, sl, r3
 c107368:	e1a07934 	lsr	r7, r4, r9
 c10736c:	e1a08935 	lsr	r8, r5, r9
 c107370:	e1a0982a 	lsr	r9, sl, #16
 c107374:	e1a0280a 	lsl	r2, sl, #16
 c107378:	e1a01009 	mov	r1, r9
 c10737c:	e1a00007 	mov	r0, r7
 c107380:	e1888314 	orr	r8, r8, r4, lsl r3
 c107384:	e1a0b315 	lsl	fp, r5, r3
 c107388:	e1a06822 	lsr	r6, r2, #16
 c10738c:	ebfffd82 	bl	c10699c <__aeabi_uidiv>
 c107390:	e1a01009 	mov	r1, r9
 c107394:	e1a05000 	mov	r5, r0
 c107398:	e1a00007 	mov	r0, r7
 c10739c:	ebfffdbb 	bl	c106a90 <__aeabi_uidivmod>
 c1073a0:	e0030596 	mul	r3, r6, r5
 c1073a4:	e1a04828 	lsr	r4, r8, #16
 c1073a8:	e1844801 	orr	r4, r4, r1, lsl #16
 c1073ac:	e1530004 	cmp	r3, r4
 c1073b0:	9a000002 	bls	c1073c0 <__udivdi3+0x3a8>
 c1073b4:	e094400a 	adds	r4, r4, sl
 c1073b8:	e2455001 	sub	r5, r5, #1
 c1073bc:	3a00001e 	bcc	c10743c <__udivdi3+0x424>
 c1073c0:	e0634004 	rsb	r4, r3, r4
 c1073c4:	e1a01009 	mov	r1, r9
 c1073c8:	e1a00004 	mov	r0, r4
 c1073cc:	ebfffd72 	bl	c10699c <__aeabi_uidiv>
 c1073d0:	e1a01009 	mov	r1, r9
 c1073d4:	e1a07000 	mov	r7, r0
 c1073d8:	e1a00004 	mov	r0, r4
 c1073dc:	ebfffdab 	bl	c106a90 <__aeabi_uidivmod>
 c1073e0:	e0030796 	mul	r3, r6, r7
 c1073e4:	e1a00808 	lsl	r0, r8, #16
 c1073e8:	e1a0c820 	lsr	ip, r0, #16
 c1073ec:	e18c4801 	orr	r4, ip, r1, lsl #16
 c1073f0:	e1530004 	cmp	r3, r4
 c1073f4:	9a000005 	bls	c107410 <__udivdi3+0x3f8>
 c1073f8:	e094400a 	adds	r4, r4, sl
 c1073fc:	e2477001 	sub	r7, r7, #1
 c107400:	2a000002 	bcs	c107410 <__udivdi3+0x3f8>
 c107404:	e1530004 	cmp	r3, r4
 c107408:	82477001 	subhi	r7, r7, #1
 c10740c:	8084400a 	addhi	r4, r4, sl
 c107410:	e0634004 	rsb	r4, r3, r4
 c107414:	e1877805 	orr	r7, r7, r5, lsl #16
 c107418:	eaffff5f 	b	c10719c <__udivdi3+0x184>
 c10741c:	e1540002 	cmp	r4, r2
 c107420:	82466001 	subhi	r6, r6, #1
 c107424:	80822008 	addhi	r2, r2, r8
 c107428:	eaffffb2 	b	c1072f8 <__udivdi3+0x2e0>
 c10742c:	e152000b 	cmp	r2, fp
 c107430:	82499001 	subhi	r9, r9, #1
 c107434:	808bb008 	addhi	fp, fp, r8
 c107438:	eaffff9a 	b	c1072a8 <__udivdi3+0x290>
 c10743c:	e1530004 	cmp	r3, r4
 c107440:	82455001 	subhi	r5, r5, #1
 c107444:	8084400a 	addhi	r4, r4, sl
 c107448:	eaffffdc 	b	c1073c0 <__udivdi3+0x3a8>

0c10744c <__clzsi2>:
 c10744c:	e3a0101c 	mov	r1, #28
 c107450:	e3500801 	cmp	r0, #65536	; 0x10000
 c107454:	21a00820 	lsrcs	r0, r0, #16
 c107458:	22411010 	subcs	r1, r1, #16
 c10745c:	e3500c01 	cmp	r0, #256	; 0x100
 c107460:	21a00420 	lsrcs	r0, r0, #8
 c107464:	22411008 	subcs	r1, r1, #8
 c107468:	e3500010 	cmp	r0, #16
 c10746c:	21a00220 	lsrcs	r0, r0, #4
 c107470:	22411004 	subcs	r1, r1, #4
 c107474:	e28f2008 	add	r2, pc, #8
 c107478:	e7d20000 	ldrb	r0, [r2, r0]
 c10747c:	e0800001 	add	r0, r0, r1
 c107480:	e12fff1e 	bx	lr
 c107484:	02020304 	.word	0x02020304
 c107488:	01010101 	.word	0x01010101
	...
